(dp1
Velectivire
p2
VElectivire
p3
sVanchorshot
p4
VAnchor Shot
p5
sVheracross
p6
VHeracross
p7
sVarceusice
p8
VArceus-Ice
p9
sVcolorchange
p10
VColor Change
p11
sVgmaxvoltcrash
p12
VG-Max Volt Crash
p13
sVlucarionite
p14
VLucarionite
p15
sVpalkia
p16
VPalkia
p17
sVchatter
p18
VChatter
p19
sValakazite
p20
VAlakazite
p21
sVtickle
p22
VTickle
p23
sVarceuselectric
p24
VArceus-Electric
p25
sVabra
p26
VAbra
p27
sVexeggutoralola
p28
VExeggutor-Alola
p29
sVrecycle
p30
VRecycle
p31
sVtimerball
p32
VTimer Ball
p33
sVsteeliumz
p34
VSteelium Z
p35
sVsharpbeak
p36
VSharp Beak
p37
sVmewtwonitex
p38
VMewtwonite X
p39
sVmewtwonitey
p40
VMewtwonite Y
p41
sVquickclaw
p42
VQuick Claw
p43
sVoricoriopompom
p44
VOricorio-Pom-Pom
p45
sVneuroforce
p46
VNeuroforce
p47
sVcuriousmedicine
p48
VCurious Medicine
p49
sVdoubleslap
p50
VDouble Slap
p51
sVboltund
p52
VBoltund
p53
sVlurantis
p54
VLurantis
p55
sVeviolite
p56
VEviolite
p57
sVprotean
p58
VProtean
p59
sVsquirtle
p60
VSquirtle
p61
sVdiglettalola
p62
VDiglett-Alola
p63
sVdarmanitanzen
p64
VDarmanitan-Zen
p65
sVscaleshot
p66
VScale Shot
p67
sVwormadam
p68
VWormadam
p69
sVmiracleberry
p70
VMiracle Berry
p71
sVaggronmega
p72
VAggron-Mega
p73
sVwhirlwind
p74
VWhirlwind
p75
sVblastoisegmax
p76
VBlastoise-Gmax
p77
sVplumefossil
p78
VPlume Fossil
p79
sVdragonsmaw
p80
VDragon's Maw
p81
sVunfezant
p82
VUnfezant
p83
sVhiddenpowerelectric
p84
VHidden Power Electric
p85
sVhiddenpowerfire
p86
VHidden Power Fire
p87
sVasoneglastrier
p88
VAs One (Glastrier)
p89
sVguillotine
p90
VGuillotine
p91
sVlevitate
p92
VLevitate
p93
sVgyaradosite
p94
VGyaradosite
p95
sVpomegberry
p96
VPomeg Berry
p97
sVpokestargiant
p98
VPokestar Giant
p99
sVmasquerain
p100
VMasquerain
p101
sVaccelerock
p102
VAccelerock
p103
sVthunder
p104
VThunder
p105
sVhaze
p106
VHaze
p107
sVdarkgem
p108
VDark Gem
p109
sVpokestarmt2
p110
VPokestar MT2
p111
sVfraxure
p112
VFraxure
p113
sVmoldbreaker
p114
VMold Breaker
p115
sVcrunch
p116
VCrunch
p117
sVrindoberry
p118
VRindo Berry
p119
sVlatiosite
p120
VLatiosite
p121
sVreflecttype
p122
VReflect Type
p123
sVdugtrio
p124
VDugtrio
p125
sVflipturn
p126
VFlip Turn
p127
sVsnivy
p128
VSnivy
p129
sVmefirst
p130
VMe First
p131
sVstarfberry
p132
VStarf Berry
p133
sVscizorite
p134
VScizorite
p135
sVmew
p136
VMew
p137
sVpursuit
p138
VPursuit
p139
sVheadsmash
p140
VHead Smash
p141
sVaftermath
p142
VAftermath
p143
sVmintberry
p144
VMint Berry
p145
sVclawitzer
p146
VClawitzer
p147
sVcoalossal
p148
VCoalossal
p149
sVpixilate
p150
VPixilate
p151
sVtornadustherian
p152
VTornadus-Therian
p153
sVmoonstone
p154
VMoon Stone
p155
sVlunatone
p156
VLunatone
p157
sVsinisteaantique
p158
VSinistea-Antique
p159
sVpunishment
p160
VPunishment
p161
sVpoisontouch
p162
VPoison Touch
p163
sVfeebas
p164
VFeebas
p165
sVgmaxwildfire
p166
VG-Max Wildfire
p167
sVneedlearm
p168
VNeedle Arm
p169
sValtarianite
p170
VAltarianite
p171
sVblastburn
p172
VBlast Burn
p173
sVhonchkrow
p174
VHonchkrow
p175
sVtelepathy
p176
VTelepathy
p177
sVschooling
p178
VSchooling
p179
sVtirtouga
p180
VTirtouga
p181
sVampharos
p182
VAmpharos
p183
sVdusclops
p184
VDusclops
p185
sVpoisonbarb
p186
VPoison Barb
p187
sVmorningsun
p188
VMorning Sun
p189
sVfreezedry
p190
VFreeze-Dry
p191
sVmandibuzz
p192
VMandibuzz
p193
sVoverheat
p194
VOverheat
p195
sVwishiwashischool
p196
VWishiwashi-School
p197
sVspiritomb
p198
VSpiritomb
p199
sVvoltabsorb
p200
VVolt Absorb
p201
sVpurugly
p202
VPurugly
p203
sVshiftgear
p204
VShift Gear
p205
sVvenomoth
p206
VVenomoth
p207
sVfirstimpression
p208
VFirst Impression
p209
sVcastformrainy
p210
VCastform-Rainy
p211
sVbigroot
p212
VBig Root
p213
sVaromaveil
p214
VAroma Veil
p215
sVduraludon
p216
VDuraludon
p217
sVgardevoir
p218
VGardevoir
p219
sVsheerforce
p220
VSheer Force
p221
sVmagnetrise
p222
VMagnet Rise
p223
sVhelioptile
p224
VHelioptile
p225
sVreuniclus
p226
VReuniclus
p227
sVbeastboost
p228
VBeast Boost
p229
sVsceptilemega
p230
VSceptile-Mega
p231
sVlunge
p232
VLunge
p233
sVpowerofalchemy
p234
VPower of Alchemy
p235
sVcorrosion
p236
VCorrosion
p237
sVbeastball
p238
VBeast Ball
p239
sVkitsunoh
p240
VKitsunoh
p241
sVarceusbug
p242
VArceus-Bug
p243
sVgranbull
p244
VGranbull
p245
sVmeditite
p246
VMeditite
p247
sVnidorino
p248
VNidorino
p249
sVgengarmega
p250
VGengar-Mega
p251
sVpidgeot
p252
VPidgeot
p253
sVstakataka
p254
VStakataka
p255
sVsilvallypoison
p256
VSilvally-Poison
p257
sVchewtle
p258
VChewtle
p259
sVtangledfeet
p260
VTangled Feet
p261
sVigglybuff
p262
VIgglybuff
p263
sVonix
p264
VOnix
p265
sVgrimer
p266
VGrimer
p267
sVrototiller
p268
VRototiller
p269
sVlucariomega
p270
VLucario-Mega
p271
sVbugbite
p272
VBug Bite
p273
sVpoisongas
p274
VPoison Gas
p275
sVmakuhita
p276
VMakuhita
p277
sVtympole
p278
VTympole
p279
sVfriendball
p280
VFriend Ball
p281
sVtartapple
p282
VTart Apple
p283
sVwigglytuff
p284
VWigglytuff
p285
sVattract
p286
VAttract
p287
sVcharizarditey
p288
VCharizardite Y
p289
sVcharizarditex
p290
VCharizardite X
p291
sVhyperspacehole
p292
VHyperspace Hole
p293
sVskydrop
p294
VSky Drop
p295
sVcrabhammer
p296
VCrabhammer
p297
sVtoxic
p298
VToxic
p299
sVcastformsunny
p300
VCastform-Sunny
p301
sVrotomheat
p302
VRotom-Heat
p303
sVperrserker
p304
VPerrserker
p305
sVsportball
p306
VSport Ball
p307
sVpoisonpowder
p308
VPoison Powder
p309
sVredcard
p310
VRed Card
p311
sVmodest
p312
VModest
p313
sVtynamo
p314
VTynamo
p315
sVrocktomb
p316
VRock Tomb
p317
sVdrizzile
p318
VDrizzile
p319
sVcherubi
p320
VCherubi
p321
sVbuzzybuzz
p322
VBuzzy Buzz
p323
sVflapplegmax
p324
VFlapple-Gmax
p325
sVpoweranklet
p326
VPower Anklet
p327
sVgumshoostotem
p328
VGumshoos-Totem
p329
sVspookyplate
p330
VSpooky Plate
p331
sVtoxtricitylowkey
p332
VToxtricity-Low-Key
p333
sVhasty
p334
VHasty
p335
sVraichualola
p336
VRaichu-Alola
p337
sVcottonee
p338
VCottonee
p339
sVentei
p340
VEntei
p341
sVdecidueye
p342
VDecidueye
p343
sVarceussteel
p344
VArceus-Steel
p345
sVtogedemarutotem
p346
VTogedemaru-Totem
p347
sVcobaberry
p348
VCoba Berry
p349
sVlaggingtail
p350
VLagging Tail
p351
sVfinalgambit
p352
VFinal Gambit
p353
sVrapidash
p354
VRapidash
p355
sVblacephalon
p356
VBlacephalon
p357
sVpikachugmax
p358
VPikachu-Gmax
p359
sVdoubleteam
p360
VDouble Team
p361
sVlumineon
p362
VLumineon
p363
sVgligar
p364
VGligar
p365
sVshielddust
p366
VShield Dust
p367
sVmagicbounce
p368
VMagic Bounce
p369
sVfakeout
p370
VFake Out
p371
sVsludge
p372
VSludge
p373
sVvenusaur
p374
VVenusaur
p375
sVphione
p376
VPhione
p377
sVmindplate
p378
VMind Plate
p379
sVgrassyseed
p380
VGrassy Seed
p381
sVflameburst
p382
VFlame Burst
p383
sValcremie
p384
VAlcremie
p385
sVhatenna
p386
VHatenna
p387
sVzapplate
p388
VZap Plate
p389
sVmunna
p390
VMunna
p391
sVzaciancrowned
p392
VZacian-Crowned
p393
sVdragonscale
p394
VDragon Scale
p395
sVjawfossil
p396
VJaw Fossil
p397
sVnihilego
p398
VNihilego
p399
sVmimikyu
p400
VMimikyu
p401
sVampharosmega
p402
VAmpharos-Mega
p403
sVkricketot
p404
VKricketot
p405
sVsilicobra
p406
VSilicobra
p407
sVgroundiumz
p408
VGroundium Z
p409
sVroost
p410
VRoost
p411
sVfurycutter
p412
VFury Cutter
p413
sVirontail
p414
VIron Tail
p415
sVclangingscales
p416
VClanging Scales
p417
sVheatmor
p418
VHeatmor
p419
sVeggbomb
p420
VEgg Bomb
p421
sVluxray
p422
VLuxray
p423
sVpayback
p424
VPayback
p425
sVurshifu
p426
VUrshifu
p427
sVcursola
p428
VCursola
p429
sVexcadrill
p430
VExcadrill
p431
sVeeveegmax
p432
VEevee-Gmax
p433
sVgloom
p434
VGloom
p435
sVgluttony
p436
VGluttony
p437
sVtapukoko
p438
VTapu Koko
p439
sVvulpix
p440
VVulpix
p441
sVcradily
p442
VCradily
p443
sVwimpod
p444
VWimpod
p445
sVthunderfang
p446
VThunder Fang
p447
sVblastoisemega
p448
VBlastoise-Mega
p449
sVespeon
p450
VEspeon
p451
sVtogedemaru
p452
VTogedemaru
p453
sVgmaxmalodor
p454
VG-Max Malodor
p455
sVflameorb
p456
VFlame Orb
p457
sVasonespectrier
p458
VAs One (Spectrier)
p459
sVpanpour
p460
VPanpour
p461
sVhiddenpowerdragon
p462
VHidden Power Dragon
p463
sVgmaxoneblow
p464
VG-Max One Blow
p465
sVfairywind
p466
VFairy Wind
p467
sVgothorita
p468
VGothorita
p469
sVomastar
p470
VOmastar
p471
sVwalrein
p472
VWalrein
p473
sVsawsbuck
p474
VSawsbuck
p475
sVtruant
p476
VTruant
p477
sVtr00
p478
VTR00
p479
sVqualotberry
p480
VQualot Berry
p481
sVflowergift
p482
VFlower Gift
p483
sVsuperluck
p484
VSuper Luck
p485
sVpsychic
p486
VPsychic
p487
sVvulpixalola
p488
VVulpix-Alola
p489
sVpalossand
p490
VPalossand
p491
sVwaterstone
p492
VWater Stone
p493
sVkasibberry
p494
VKasib Berry
p495
sVribombee
p496
VRibombee
p497
sVargalis
p498
VArgalis
p499
sVcottonguard
p500
VCotton Guard
p501
sVtornadus
p502
VTornadus
p503
sVshedshell
p504
VShed Shell
p505
sVbarrier
p506
VBarrier
p507
sVurshifurapidstrikegmax
p508
VUrshifu-Rapid-Strike-Gmax
p509
sVleftovers
p510
VLeftovers
p511
sVdragondarts
p512
VDragon Darts
p513
sVnastyplot
p514
VNasty Plot
p515
sVcoreenforcer
p516
VCore Enforcer
p517
sVsynchronoise
p518
VSynchronoise
p519
sVzippyzap
p520
VZippy Zap
p521
sVbestow
p522
VBestow
p523
sVtrumpcard
p524
VTrump Card
p525
sVstruggle
p526
VStruggle
p527
sVmrrime
p528
VMr. Rime
p529
sViceball
p530
VIce Ball
p531
sVgalladite
p532
VGalladite
p533
sVsolotl
p534
VSolotl
p535
sVshiftry
p536
VShiftry
p537
sVfletchinder
p538
VFletchinder
p539
sVbeartic
p540
VBeartic
p541
sVkyuremblack
p542
VKyurem-Black
p543
sVsonicboom
p544
VSonic Boom
p545
sVpikachupartner
p546
VPikachu-Partner
p547
sVfreezingglare
p548
VFreezing Glare
p549
sVgroudonprimal
p550
VGroudon-Primal
p551
sVlatias
p552
VLatias
p553
sVdrainpunch
p554
VDrain Punch
p555
sVsteelixmega
p556
VSteelix-Mega
p557
sVwanderingspirit
p558
VWandering Spirit
p559
sVtapuniumz
p560
VTapunium Z
p561
sVcherishball
p562
VCherish Ball
p563
sVcheriberry
p564
VCheri Berry
p565
sVfightingmemory
p566
VFighting Memory
p567
sVnaughty
p568
VNaughty
p569
sVseedflare
p570
VSeed Flare
p571
sVhydrocannon
p572
VHydro Cannon
p573
sVmagneticflux
p574
VMagnetic Flux
p575
sVdeoxys
p576
VDeoxys
p577
sVursaring
p578
VUrsaring
p579
sVzamazentacrowned
p580
VZamazenta-Crowned
p581
sVlatiasmega
p582
VLatias-Mega
p583
sVrattataalola
p584
VRattata-Alola
p585
sVinstruct
p586
VInstruct
p587
sVembirch
p588
VEmbirch
p589
sVshieldon
p590
VShieldon
p591
sVslugma
p592
VSlugma
p593
sVheracrossmega
p594
VHeracross-Mega
p595
sVwaveincense
p596
VWave Incense
p597
sVmanectite
p598
VManectite
p599
sVinnardsout
p600
VInnards Out
p601
sVpikachupopstar
p602
VPikachu-Pop-Star
p603
sVmudsdale
p604
VMudsdale
p605
sVaircutter
p606
VAir Cutter
p607
sVgiratinaorigin
p608
VGiratina-Origin
p609
sVgrowlithe
p610
VGrowlithe
p611
sVejectpack
p612
VEject Pack
p613
sVdrillrun
p614
VDrill Run
p615
sVtwister
p616
VTwister
p617
sVarceusdragon
p618
VArceus-Dragon
p619
sVflamethrower
p620
VFlamethrower
p621
sVtoxicorb
p622
VToxic Orb
p623
sVfairylock
p624
VFairy Lock
p625
sVrockclimb
p626
VRock Climb
p627
sVwonderroom
p628
VWonder Room
p629
sVmegakick
p630
VMega Kick
p631
sVdoomdesire
p632
VDoom Desire
p633
sVmirrormove
p634
VMirror Move
p635
sVsandshrew
p636
VSandshrew
p637
sVpolitoed
p638
VPolitoed
p639
sVminun
p640
VMinun
p641
sVgmaxstonesurge
p642
VG-Max Stonesurge
p643
sVbelueberry
p644
VBelue Berry
p645
sVgeodudealola
p646
VGeodude-Alola
p647
sVfloralhealing
p648
VFloral Healing
p649
sVhoppip
p650
VHoppip
p651
sVfiriumz
p652
VFirium Z
p653
sVendure
p654
VEndure
p655
sVswiftswim
p656
VSwift Swim
p657
sVshellbell
p658
VShell Bell
p659
sVminus
p660
VMinus
p661
sVmeowth
p662
VMeowth
p663
sVsweetscent
p664
VSweet Scent
p665
sVwacanberry
p666
VWacan Berry
p667
sVsylveon
p668
VSylveon
p669
sVpayapaberry
p670
VPayapa Berry
p671
sVclosecombat
p672
VClose Combat
p673
sVgrotle
p674
VGrotle
p675
sVlaprasgmax
p676
VLapras-Gmax
p677
sVsilvallydark
p678
VSilvally-Dark
p679
sVhealer
p680
VHealer
p681
sVseel
p682
VSeel
p683
sVblastoise
p684
VBlastoise
p685
sVstrength
p686
VStrength
p687
sVchingling
p688
VChingling
p689
sVgothita
p690
VGothita
p691
sVyungoos
p692
VYungoos
p693
sVgmaxgravitas
p694
VG-Max Gravitas
p695
sVcraftyshield
p696
VCrafty Shield
p697
sVgyroball
p698
VGyro Ball
p699
sVsnom
p700
VSnom
p701
sVrhyperior
p702
VRhyperior
p703
sVgolbat
p704
VGolbat
p705
sVrhydon
p706
VRhydon
p707
sVsteelroller
p708
VSteel Roller
p709
sVgrassyterrain
p710
VGrassy Terrain
p711
sVdeoxysspeed
p712
VDeoxys-Speed
p713
sVpikachucosplay
p714
VPikachu-Cosplay
p715
sVshadowforce
p716
VShadow Force
p717
sVcoil
p718
VCoil
p719
sVdrought
p720
VDrought
p721
sVdevastatingdrake
p722
VDevastating Drake
p723
sVcosmicpower
p724
VCosmic Power
p725
sVlifedew
p726
VLife Dew
p727
sVhatterene
p728
VHatterene
p729
sVempoleon
p730
VEmpoleon
p731
sVthousandwaves
p732
VThousand Waves
p733
sVdunsparce
p734
VDunsparce
p735
sVnincada
p736
VNincada
p737
sVconstrict
p738
VConstrict
p739
sVvileplume
p740
VVileplume
p741
sVraticate
p742
VRaticate
p743
sVcinccino
p744
VCinccino
p745
sVjirachi
p746
VJirachi
p747
sVgolduck
p748
VGolduck
p749
sVaurorabeam
p750
VAurora Beam
p751
sVsteamengine
p752
VSteam Engine
p753
sVarmorfossil
p754
VArmor Fossil
p755
sVstickyweb
p756
VSticky Web
p757
sVlycanrocdusk
p758
VLycanroc-Dusk
p759
sVtogekiss
p760
VTogekiss
p761
sVhippopotas
p762
VHippopotas
p763
sVdialga
p764
VDialga
p765
sVlastresort
p766
VLast Resort
p767
sVpsychicterrain
p768
VPsychic Terrain
p769
sVbulletpunch
p770
VBullet Punch
p771
sVicegem
p772
VIce Gem
p773
sVspite
p774
VSpite
p775
sVcarbink
p776
VCarbink
p777
sVwaterpulse
p778
VWater Pulse
p779
sVstoutland
p780
VStoutland
p781
sVgenesissupernova
p782
VGenesis Supernova
p783
sVbidoof
p784
VBidoof
p785
sVlongreach
p786
VLong Reach
p787
sVtapulele
p788
VTapu Lele
p789
sVtarshot
p790
VTar Shot
p791
sVweedle
p792
VWeedle
p793
sVstarsweet
p794
VStar Sweet
p795
sVhoneygather
p796
VHoney Gather
p797
sVmachop
p798
VMachop
p799
sVmetalpowder
p800
VMetal Powder
p801
sVguardianofalola
p802
VGuardian of Alola
p803
sVdusknoir
p804
VDusknoir
p805
sVmeditate
p806
VMeditate
p807
sVreversal
p808
VReversal
p809
sVlunardance
p810
VLunar Dance
p811
sVcaribolt
p812
VCaribolt
p813
sVpumpkaboosmall
p814
VPumpkaboo-Small
p815
sVmimikyubusted
p816
VMimikyu-Busted
p817
sVpolteageist
p818
VPolteageist
p819
sVtentacool
p820
VTentacool
p821
sVpokeball
p822
VPoke Ball
p823
sVsilvally
p824
VSilvally
p825
sVhatterenegmax
p826
VHatterene-Gmax
p827
sVdiancie
p828
VDiancie
p829
sVplasmanta
p830
VPlasmanta
p831
sVnosepass
p832
VNosepass
p833
sVearthplate
p834
VEarth Plate
p835
sVlaxincense
p836
VLax Incense
p837
sVmagneton
p838
VMagneton
p839
sVstickyhold
p840
VSticky Hold
p841
sVbeatup
p842
VBeat Up
p843
sVleafblade
p844
VLeaf Blade
p845
sVfluffy
p846
VFluffy
p847
sVserperior
p848
VSerperior
p849
sVlopunnite
p850
VLopunnite
p851
sVwooper
p852
VWooper
p853
sVforretress
p854
VForretress
p855
sVmindreader
p856
VMind Reader
p857
sVseaincense
p858
VSea Incense
p859
sVstrawberrysweet
p860
VStrawberry Sweet
p861
sVsimisage
p862
VSimisage
p863
sVsolarblade
p864
VSolar Blade
p865
sVarcheops
p866
VArcheops
p867
sVheavymetal
p868
VHeavy Metal
p869
sVwormadamsandy
p870
VWormadam-Sandy
p871
sVpsychiumz
p872
VPsychium Z
p873
sVspiritshackle
p874
VSpirit Shackle
p875
sVcontinentalcrush
p876
VContinental Crush
p877
sVmuscleband
p878
VMuscle Band
p879
sVtwinkletackle
p880
VTwinkle Tackle
p881
sVmatblock
p882
VMat Block
p883
sVmoongeistbeam
p884
VMoongeist Beam
p885
sVeternabeam
p886
VEternabeam
p887
sVdoduo
p888
VDoduo
p889
sVmuk
p890
VMuk
p891
sVnecrozmadawnwings
p892
VNecrozma-Dawn-Wings
p893
sVmotordrive
p894
VMotor Drive
p895
sVconfusion
p896
VConfusion
p897
sVdualwingbeat
p898
VDual Wingbeat
p899
sVslowpoke
p900
VSlowpoke
p901
sVfrostbreath
p902
VFrost Breath
p903
sVvirizion
p904
VVirizion
p905
sVspinda
p906
VSpinda
p907
sVcosmoem
p908
VCosmoem
p909
sVmeadowplate
p910
VMeadow Plate
p911
sVparasect
p912
VParasect
p913
sVgourgeistsmall
p914
VGourgeist-Small
p915
sVadamantorb
p916
VAdamant Orb
p917
sVprotect
p918
VProtect
p919
sVsteenee
p920
VSteenee
p921
sVplaynice
p922
VPlay Nice
p923
sVsamurott
p924
VSamurott
p925
sVmenacingmoonrazemaelstrom
p926
VMenacing Moonraze Maelstrom
p927
sVreceiver
p928
VReceiver
p929
sVmawile
p930
VMawile
p931
sVchimecho
p932
VChimecho
p933
sVpetayaberry
p934
VPetaya Berry
p935
sVdoublade
p936
VDoublade
p937
sVregigigas
p938
VRegigigas
p939
sVpsychicseed
p940
VPsychic Seed
p941
sVconfide
p942
VConfide
p943
sVluckychant
p944
VLucky Chant
p945
sVleppaberry
p946
VLeppa Berry
p947
sVcorrosivegas
p948
VCorrosive Gas
p949
sVchlorophyll
p950
VChlorophyll
p951
sVbastiodon
p952
VBastiodon
p953
sVpersimberry
p954
VPersim Berry
p955
sVfierydance
p956
VFiery Dance
p957
sVfloatzel
p958
VFloatzel
p959
sVsmackdown
p960
VSmack Down
p961
sVcopycat
p962
VCopycat
p963
sVmeteorassault
p964
VMeteor Assault
p965
sVsalamencite
p966
VSalamencite
p967
sVbuneary
p968
VBuneary
p969
sVrevelationdance
p970
VRevelation Dance
p971
sVshockdrive
p972
VShock Drive
p973
sVnightdaze
p974
VNight Daze
p975
sVfriendguard
p976
VFriend Guard
p977
sVscaryface
p978
VScary Face
p979
sVbarraskewda
p980
VBarraskewda
p981
sVscorchingsands
p982
VScorching Sands
p983
sVmarowakalolatotem
p984
VMarowak-Alola-Totem
p985
sVsteamroller
p986
VSteamroller
p987
sVsalazzle
p988
VSalazzle
p989
sVicehammer
p990
VIce Hammer
p991
sVkakuna
p992
VKakuna
p993
sVpowertrick
p994
VPower Trick
p995
sVyanma
p996
VYanma
p997
sVsilvallyfire
p998
VSilvally-Fire
p999
sVchatot
p1000
VChatot
p1001
sVaciddownpour
p1002
VAcid Downpour
p1003
sVskittersmack
p1004
VSkitter Smack
p1005
sVmarshtomp
p1006
VMarshtomp
p1007
sVwickedblow
p1008
VWicked Blow
p1009
sVgurdurr
p1010
VGurdurr
p1011
sVsoundproof
p1012
VSoundproof
p1013
sVrufflet
p1014
VRufflet
p1015
sVslam
p1016
VSlam
p1017
sVthrash
p1018
VThrash
p1019
sVsandrush
p1020
VSand Rush
p1021
sVsliggoo
p1022
VSliggoo
p1023
sVtotodile
p1024
VTotodile
p1025
sVgarchompite
p1026
VGarchompite
p1027
sVslowbro
p1028
VSlowbro
p1029
sVprismaticlaser
p1030
VPrismatic Laser
p1031
sVnaganadel
p1032
VNaganadel
p1033
sValakazam
p1034
VAlakazam
p1035
sVbinacle
p1036
VBinacle
p1037
sVhitmonlee
p1038
VHitmonlee
p1039
sVmarowakalola
p1040
VMarowak-Alola
p1041
sVnevermeltice
p1042
VNever-Melt Ice
p1043
sVgrowl
p1044
VGrowl
p1045
sVarmaldo
p1046
VArmaldo
p1047
sVgrassyglide
p1048
VGrassy Glide
p1049
sVaguavberry
p1050
VAguav Berry
p1051
sVdrilbur
p1052
VDrilbur
p1053
sVcameruptite
p1054
VCameruptite
p1055
sVwhippeddream
p1056
VWhipped Dream
p1057
sVralts
p1058
VRalts
p1059
sVnaive
p1060
VNaive
p1061
sVrebound
p1062
VRebound
p1063
sVpupitar
p1064
VPupitar
p1065
sVindeedee
p1066
VIndeedee
p1067
sVslowking
p1068
VSlowking
p1069
sVpowerherb
p1070
VPower Herb
p1071
sVnoivern
p1072
VNoivern
p1073
sVwaterfall
p1074
VWaterfall
p1075
sVdewgong
p1076
VDewgong
p1077
sVflyiniumz
p1078
VFlyinium Z
p1079
sVkirlia
p1080
VKirlia
p1081
sVknockoff
p1082
VKnock Off
p1083
sVoctazooka
p1084
VOctazooka
p1085
sVcawmodore
p1086
VCawmodore
p1087
sVpikachubelle
p1088
VPikachu-Belle
p1089
sVluxuryball
p1090
VLuxury Ball
p1091
sVhydration
p1092
VHydration
p1093
sVkrokorok
p1094
VKrokorok
p1095
sVamoonguss
p1096
VAmoonguss
p1097
sVsilvallygrass
p1098
VSilvally-Grass
p1099
sVquilladin
p1100
VQuilladin
p1101
sVshellarmor
p1102
VShell Armor
p1103
sVpoliwag
p1104
VPoliwag
p1105
sVslushrush
p1106
VSlush Rush
p1107
sVmetalcoat
p1108
VMetal Coat
p1109
sVcompoundeyes
p1110
VCompound Eyes
p1111
sVthickclub
p1112
VThick Club
p1113
sVdugtrioalola
p1114
VDugtrio-Alola
p1115
sVdisguise
p1116
VDisguise
p1117
sVscizor
p1118
VScizor
p1119
sVarticunogalar
p1120
VArticuno-Galar
p1121
sVfloetteeternal
p1122
VFloette-Eternal
p1123
sVkerfluffle
p1124
VKerfluffle
p1125
sVdracovish
p1126
VDracovish
p1127
sVbuggem
p1128
VBug Gem
p1129
sVdragonmemory
p1130
VDragon Memory
p1131
sVoshawott
p1132
VOshawott
p1133
sVtorterra
p1134
VTorterra
p1135
sVtogepi
p1136
VTogepi
p1137
sVdomefossil
p1138
VDome Fossil
p1139
sVadamant
p1140
VAdamant
p1141
sVlowkick
p1142
VLow Kick
p1143
sVhealbell
p1144
VHeal Bell
p1145
sVmirrorshot
p1146
VMirror Shot
p1147
sVtapufini
p1148
VTapu Fini
p1149
sVlickitung
p1150
VLickitung
p1151
sVsilcoon
p1152
VSilcoon
p1153
sVpassimian
p1154
VPassimian
p1155
sVlatiosmega
p1156
VLatios-Mega
p1157
sVsilvallybug
p1158
VSilvally-Bug
p1159
sVdragonrush
p1160
VDragon Rush
p1161
sVredorb
p1162
VRed Orb
p1163
sVapplin
p1164
VApplin
p1165
sVspinarak
p1166
VSpinarak
p1167
sVdiggersby
p1168
VDiggersby
p1169
sVsilverwind
p1170
VSilver Wind
p1171
sVmrmimegalar
p1172
VMr. Mime-Galar
p1173
sVsunnyday
p1174
VSunny Day
p1175
sVludicolo
p1176
VLudicolo
p1177
sVditto
p1178
VDitto
p1179
sVfossilizeddino
p1180
VFossilized Dino
p1181
sVcirclethrow
p1182
VCircle Throw
p1183
sVraboot
p1184
VRaboot
p1185
sVfullmetalbody
p1186
VFull Metal Body
p1187
sValloutpummeling
p1188
VAll-Out Pummeling
p1189
sVsmoguana
p1190
VSmoguana
p1191
sVinfernooverdrive
p1192
VInferno Overdrive
p1193
sVthunderstone
p1194
VThunder Stone
p1195
sVhiddenpowerpoison
p1196
VHidden Power Poison
p1197
sVflatter
p1198
VFlatter
p1199
sVtoxicspikes
p1200
VToxic Spikes
p1201
sVfirepledge
p1202
VFire Pledge
p1203
sVtactite
p1204
VTactite
p1205
sVmorpekohangry
p1206
VMorpeko-Hangry
p1207
sVgmaxdepletion
p1208
VG-Max Depletion
p1209
sVtr28
p1210
VTR28
p1211
sVtr29
p1212
VTR29
p1213
sVrolycoly
p1214
VRolycoly
p1215
sVtr24
p1216
VTR24
p1217
sVtr25
p1218
VTR25
p1219
sVtr26
p1220
VTR26
p1221
sVtr27
p1222
VTR27
p1223
sVtr20
p1224
VTR20
p1225
sVtr21
p1226
VTR21
p1227
sVcornnberry
p1228
VCornn Berry
p1229
sVtr23
p1230
VTR23
p1231
sVskullfossil
p1232
VSkull Fossil
p1233
sVcheekpouch
p1234
VCheek Pouch
p1235
sVuproar
p1236
VUproar
p1237
sVgoldberry
p1238
VGold Berry
p1239
sVexpertbelt
p1240
VExpert Belt
p1241
sVholdhands
p1242
VHold Hands
p1243
sVpikachustarter
p1244
VPikachu-Starter
p1245
sVcrosschop
p1246
VCross Chop
p1247
sVpsyshock
p1248
VPsyshock
p1249
sVicyrock
p1250
VIcy Rock
p1251
sVsoulheart
p1252
VSoul-Heart
p1253
sVtrevenant
p1254
VTrevenant
p1255
sVabsorbbulb
p1256
VAbsorb Bulb
p1257
sVbold
p1258
VBold
p1259
sVgunkshot
p1260
VGunk Shot
p1261
sVgorillatactics
p1262
VGorilla Tactics
p1263
sVmagearna
p1264
VMagearna
p1265
sVarceusfire
p1266
VArceus-Fire
p1267
sVgarchomp
p1268
VGarchomp
p1269
sVgeodude
p1270
VGeodude
p1271
sVlightscreen
p1272
VLight Screen
p1273
sVwhimsicott
p1274
VWhimsicott
p1275
sVlavaplume
p1276
VLava Plume
p1277
sVkeeneye
p1278
VKeen Eye
p1279
sVsimipour
p1280
VSimipour
p1281
sVtrumbeak
p1282
VTrumbeak
p1283
sVautotomize
p1284
VAutotomize
p1285
sVspikecannon
p1286
VSpike Cannon
p1287
sVnecturna
p1288
VNecturna
p1289
sVplus
p1290
VPlus
p1291
sVthroatspray
p1292
VThroat Spray
p1293
sVnidoqueen
p1294
VNidoqueen
p1295
sVelectricsurge
p1296
VElectric Surge
p1297
sVpikachulibre
p1298
VPikachu-Libre
p1299
sVthunderpunch
p1300
VThunder Punch
p1301
sVhornleech
p1302
VHorn Leech
p1303
sVbraixen
p1304
VBraixen
p1305
sVdarkvoid
p1306
VDark Void
p1307
sVsupersonicskystrike
p1308
VSupersonic Skystrike
p1309
sVhoundour
p1310
VHoundour
p1311
sVdualchop
p1312
VDual Chop
p1313
sVpinsirmega
p1314
VPinsir-Mega
p1315
sVfoulplay
p1316
VFoul Play
p1317
sVcentiskorchgmax
p1318
VCentiskorch-Gmax
p1319
sVgalewings
p1320
VGale Wings
p1321
sVbehemothbash
p1322
VBehemoth Bash
p1323
sVstormdrain
p1324
VStorm Drain
p1325
sVseadra
p1326
VSeadra
p1327
sVovergrow
p1328
VOvergrow
p1329
sVprismscale
p1330
VPrism Scale
p1331
sVbronzor
p1332
VBronzor
p1333
sVwrap
p1334
VWrap
p1335
sVrebble
p1336
VRebble
p1337
sVterrainextender
p1338
VTerrain Extender
p1339
sVcorsola
p1340
VCorsola
p1341
sVtransform
p1342
VTransform
p1343
sVklefki
p1344
VKlefki
p1345
sVrowapberry
p1346
VRowap Berry
p1347
sVquirky
p1348
VQuirky
p1349
sVmaxflutterby
p1350
VMax Flutterby
p1351
sVquickattack
p1352
VQuick Attack
p1353
sVsynthesis
p1354
VSynthesis
p1355
sVmultiscale
p1356
VMultiscale
p1357
sVgroundgem
p1358
VGround Gem
p1359
sVbutterfreegmax
p1360
VButterfree-Gmax
p1361
sVreshiram
p1362
VReshiram
p1363
sVrocksmash
p1364
VRock Smash
p1365
sVvolttackle
p1366
VVolt Tackle
p1367
sVghostgem
p1368
VGhost Gem
p1369
sVleafage
p1370
VLeafage
p1371
sVroughskin
p1372
VRough Skin
p1373
sVsafeguard
p1374
VSafeguard
p1375
sVsmoothrock
p1376
VSmooth Rock
p1377
sVcosmog
p1378
VCosmog
p1379
sVclangoroussoul
p1380
VClangorous Soul
p1381
sVdecorate
p1382
VDecorate
p1383
sVgigaimpact
p1384
VGiga Impact
p1385
sVbide
p1386
VBide
p1387
sVaurabreak
p1388
VAura Break
p1389
sVaurorus
p1390
VAurorus
p1391
sVcobalion
p1392
VCobalion
p1393
sVlightofruin
p1394
VLight of Ruin
p1395
sVstokedsparksurfer
p1396
VStoked Sparksurfer
p1397
sVholdback
p1398
VHold Back
p1399
sVchopleberry
p1400
VChople Berry
p1401
sVgmaxresonance
p1402
VG-Max Resonance
p1403
sVparentalbond
p1404
VParental Bond
p1405
sVregidrago
p1406
VRegidrago
p1407
sVlunaliumz
p1408
VLunalium Z
p1409
sVferaligatr
p1410
VFeraligatr
p1411
sVpokestarbrycenman
p1412
VPokestar Brycen-Man
p1413
sVicescales
p1414
VIce Scales
p1415
sVoddish
p1416
VOddish
p1417
sVleer
p1418
VLeer
p1419
sVmagby
p1420
VMagby
p1421
sVcloversweet
p1422
VClover Sweet
p1423
sVtypenull
p1424
VType: Null
p1425
sVswadloon
p1426
VSwadloon
p1427
sVvibrava
p1428
VVibrava
p1429
sVtr22
p1430
VTR22
p1431
sVsmoochum
p1432
VSmoochum
p1433
sVleek
p1434
VLeek
p1435
sVlansatberry
p1436
VLansat Berry
p1437
sVbutterfree
p1438
VButterfree
p1439
sVferroseed
p1440
VFerroseed
p1441
sVgoomy
p1442
VGoomy
p1443
sVamaura
p1444
VAmaura
p1445
sVarrokuda
p1446
VArrokuda
p1447
sVminiormeteor
p1448
VMinior-Meteor
p1449
sVclawfossil
p1450
VClaw Fossil
p1451
sVdischarge
p1452
VDischarge
p1453
sVkyogre
p1454
VKyogre
p1455
sVstrengthsap
p1456
VStrength Sap
p1457
sVpoisonpoint
p1458
VPoison Point
p1459
sVhiddenpowerground
p1460
VHidden Power Ground
p1461
sVarceuspoison
p1462
VArceus-Poison
p1463
sVliechiberry
p1464
VLiechi Berry
p1465
sVlillipup
p1466
VLillipup
p1467
sVsilvallyflying
p1468
VSilvally-Flying
p1469
sVspectralthief
p1470
VSpectral Thief
p1471
sVflareboost
p1472
VFlare Boost
p1473
sVmareep
p1474
VMareep
p1475
sVoccaberry
p1476
VOcca Berry
p1477
sVironfist
p1478
VIron Fist
p1479
sVserious
p1480
VSerious
p1481
sVmegadrain
p1482
VMega Drain
p1483
sVsalacberry
p1484
VSalac Berry
p1485
sVpolkadotbow
p1486
VPolkadot Bow
p1487
sVsnubbull
p1488
VSnubbull
p1489
sVsandveil
p1490
VSand Veil
p1491
sVabsolite
p1492
VAbsolite
p1493
sVbonsly
p1494
VBonsly
p1495
sVnecrozma
p1496
VNecrozma
p1497
sVcelebi
p1498
VCelebi
p1499
sVavalanche
p1500
VAvalanche
p1501
sVshadowsneak
p1502
VShadow Sneak
p1503
sVsuctioncups
p1504
VSuction Cups
p1505
sVwaterbubble
p1506
VWater Bubble
p1507
sVsuperpower
p1508
VSuperpower
p1509
sVchinchou
p1510
VChinchou
p1511
sVanticipation
p1512
VAnticipation
p1513
sVweezing
p1514
VWeezing
p1515
sVdragonpulse
p1516
VDragon Pulse
p1517
sVelectroball
p1518
VElectro Ball
p1519
sVflash
p1520
VFlash
p1521
sVnetball
p1522
VNet Ball
p1523
sVcharge
p1524
VCharge
p1525
sVquash
p1526
VQuash
p1527
sVsnorlax
p1528
VSnorlax
p1529
sVblackholeeclipse
p1530
VBlack Hole Eclipse
p1531
sVmaxquake
p1532
VMax Quake
p1533
sVearlybird
p1534
VEarly Bird
p1535
sVmachamp
p1536
VMachamp
p1537
sVgmaxgoldrush
p1538
VG-Max Gold Rush
p1539
sVinteleon
p1540
VInteleon
p1541
sVkricketune
p1542
VKricketune
p1543
sVtailslap
p1544
VTail Slap
p1545
sVchilanberry
p1546
VChilan Berry
p1547
sVlopunny
p1548
VLopunny
p1549
sVtoxicplate
p1550
VToxic Plate
p1551
sVtoucannon
p1552
VToucannon
p1553
sVpikachualola
p1554
VPikachu-Alola
p1555
sVsplinteredstormshards
p1556
VSplintered Stormshards
p1557
sVskyuppercut
p1558
VSky Uppercut
p1559
sVmimejr
p1560
VMime Jr.
p1561
sVguzzlord
p1562
VGuzzlord
p1563
sVpoisonsting
p1564
VPoison Sting
p1565
sVdig
p1566
VDig
p1567
sVfocusblast
p1568
VFocus Blast
p1569
sVmesprit
p1570
VMesprit
p1571
sVmagnet
p1572
VMagnet
p1573
sVcoalossalgmax
p1574
VCoalossal-Gmax
p1575
sVbanettemega
p1576
VBanette-Mega
p1577
sVgmaxsnooze
p1578
VG-Max Snooze
p1579
sVround
p1580
VRound
p1581
sVunaware
p1582
VUnaware
p1583
sVduskball
p1584
VDusk Ball
p1585
sVfalseswipe
p1586
VFalse Swipe
p1587
sVtalonflame
p1588
VTalonflame
p1589
sVleafeon
p1590
VLeafeon
p1591
sVcharizardgmax
p1592
VCharizard-Gmax
p1593
sVveeveevolley
p1594
VVeevee Volley
p1595
sVminior
p1596
VMinior
p1597
sVzorua
p1598
VZorua
p1599
sVdreepy
p1600
VDreepy
p1601
sVfairymemory
p1602
VFairy Memory
p1603
sVaegislashblade
p1604
VAegislash-Blade
p1605
sVvitalthrow
p1606
VVital Throw
p1607
sVsubstitute
p1608
VSubstitute
p1609
sVgmaxvolcalith
p1610
VG-Max Volcalith
p1611
sVcurse
p1612
VCurse
p1613
sVfocusband
p1614
VFocus Band
p1615
sVmoltres
p1616
VMoltres
p1617
sVpasshoberry
p1618
VPassho Berry
p1619
sVtanglinghair
p1620
VTangling Hair
p1621
sVdragondance
p1622
VDragon Dance
p1623
sVaxew
p1624
VAxew
p1625
sVgolemalola
p1626
VGolem-Alola
p1627
sVkecleon
p1628
VKecleon
p1629
sVglameow
p1630
VGlameow
p1631
sVaeroblast
p1632
VAeroblast
p1633
sVwartortle
p1634
VWartortle
p1635
sVexplosion
p1636
VExplosion
p1637
sVmiracleeye
p1638
VMiracle Eye
p1639
sVpumpkaboo
p1640
VPumpkaboo
p1641
sVbreakingswipe
p1642
VBreaking Swipe
p1643
sVsimisear
p1644
VSimisear
p1645
sVhoopa
p1646
VHoopa
p1647
sVtropius
p1648
VTropius
p1649
sVgroundmemory
p1650
VGround Memory
p1651
sVmysticwater
p1652
VMystic Water
p1653
sVtr39
p1654
VTR39
p1655
sVtr38
p1656
VTR38
p1657
sVtr37
p1658
VTR37
p1659
sVtr36
p1660
VTR36
p1661
sVtr35
p1662
VTR35
p1663
sVtr34
p1664
VTR34
p1665
sVtr33
p1666
VTR33
p1667
sVtr32
p1668
VTR32
p1669
sVtr31
p1670
VTR31
p1671
sVtr30
p1672
VTR30
p1673
sVspectrier
p1674
VSpectrier
p1675
sVgastroacid
p1676
VGastro Acid
p1677
sVejectbutton
p1678
VEject Button
p1679
sVbeedrillmega
p1680
VBeedrill-Mega
p1681
sVexploud
p1682
VExploud
p1683
sVglitzyglow
p1684
VGlitzy Glow
p1685
sVaraquanidtotem
p1686
VAraquanid-Totem
p1687
sVdiveball
p1688
VDive Ball
p1689
sVsawk
p1690
VSawk
p1691
sVmaxhailstorm
p1692
VMax Hailstorm
p1693
sVsandygast
p1694
VSandygast
p1695
sVdragonite
p1696
VDragonite
p1697
sVbagon
p1698
VBagon
p1699
sVregenerator
p1700
VRegenerator
p1701
sViondeluge
p1702
VIon Deluge
p1703
sVlarvesta
p1704
VLarvesta
p1705
sVgmaxcannonade
p1706
VG-Max Cannonade
p1707
sVmudslap
p1708
VMud-Slap
p1709
sVhawlucha
p1710
VHawlucha
p1711
sVmagicroom
p1712
VMagic Room
p1713
sVappleacid
p1714
VApple Acid
p1715
sVampharosite
p1716
VAmpharosite
p1717
sVdrednaw
p1718
VDrednaw
p1719
sVdesolateland
p1720
VDesolate Land
p1721
sVpinsirite
p1722
VPinsirite
p1723
sVheavyslam
p1724
VHeavy Slam
p1725
sVpinmissile
p1726
VPin Missile
p1727
sVkyogreprimal
p1728
VKyogre-Primal
p1729
sVbanefulbunker
p1730
VBaneful Bunker
p1731
sVcaptivate
p1732
VCaptivate
p1733
sVcalyrexice
p1734
VCalyrex-Ice
p1735
sVflamecharge
p1736
VFlame Charge
p1737
sVswagger
p1738
VSwagger
p1739
sVxatu
p1740
VXatu
p1741
sVmarvelscale
p1742
VMarvel Scale
p1743
sVrockslide
p1744
VRock Slide
p1745
sVcaterpie
p1746
VCaterpie
p1747
sVhypno
p1748
VHypno
p1749
sVscratchet
p1750
VScratchet
p1751
sVbottlecap
p1752
VBottle Cap
p1753
sVelectrike
p1754
VElectrike
p1755
sVfletchling
p1756
VFletchling
p1757
sVgengargmax
p1758
VGengar-Gmax
p1759
sVseismictoss
p1760
VSeismic Toss
p1761
sVfly
p1762
VFly
p1763
sVuturn
p1764
VU-turn
p1765
sVgrimneigh
p1766
VGrim Neigh
p1767
sVsandstorm
p1768
VSandstorm
p1769
sVswampertite
p1770
VSwampertite
p1771
sVcorviknight
p1772
VCorviknight
p1773
sVswablu
p1774
VSwablu
p1775
sVcatastropika
p1776
VCatastropika
p1777
sVspikyshield
p1778
VSpiky Shield
p1779
sVscolipede
p1780
VScolipede
p1781
sVdwebble
p1782
VDwebble
p1783
sVpignite
p1784
VPignite
p1785
sVsolarpower
p1786
VSolar Power
p1787
sVvespiquen
p1788
VVespiquen
p1789
sVpalpitoad
p1790
VPalpitoad
p1791
sVchilldrive
p1792
VChill Drive
p1793
sVnormalize
p1794
VNormalize
p1795
sVpastelveil
p1796
VPastel Veil
p1797
sVcorsolagalar
p1798
VCorsola-Galar
p1799
sVsealeo
p1800
VSealeo
p1801
sVbanette
p1802
VBanette
p1803
sVtearfullook
p1804
VTearful Look
p1805
sVtailwind
p1806
VTailwind
p1807
sVdianciemega
p1808
VDiancie-Mega
p1809
sVwideguard
p1810
VWide Guard
p1811
sVeelektrik
p1812
VEelektrik
p1813
sVbehemothblade
p1814
VBehemoth Blade
p1815
sVlightthatburnsthesky
p1816
VLight That Burns the Sky
p1817
sVsandforce
p1818
VSand Force
p1819
sVdarkestlariat
p1820
VDarkest Lariat
p1821
sVpowerbelt
p1822
VPower Belt
p1823
sVelectricterrain
p1824
VElectric Terrain
p1825
sVoctillery
p1826
VOctillery
p1827
sVselfdestruct
p1828
VSelf-Destruct
p1829
sVstantler
p1830
VStantler
p1831
sVeeveestarter
p1832
VEevee-Starter
p1833
sVdive
p1834
VDive
p1835
sVmamoswine
p1836
VMamoswine
p1837
sVdarkmemory
p1838
VDark Memory
p1839
sVwiseglasses
p1840
VWise Glasses
p1841
sVmilkdrink
p1842
VMilk Drink
p1843
sVpowerwhip
p1844
VPower Whip
p1845
sVancientpower
p1846
VAncient Power
p1847
sVletssnuggleforever
p1848
VLet's Snuggle Forever
p1849
sVcryogonal
p1850
VCryogonal
p1851
sVsupersonic
p1852
VSupersonic
p1853
sVpsychicfangs
p1854
VPsychic Fangs
p1855
sVdelibird
p1856
VDelibird
p1857
sVsapsipper
p1858
VSap Sipper
p1859
sVmalamar
p1860
VMalamar
p1861
sVpurify
p1862
VPurify
p1863
sVshinx
p1864
VShinx
p1865
sVflamebody
p1866
VFlame Body
p1867
sVlitwick
p1868
VLitwick
p1869
sVslowbronite
p1870
VSlowbronite
p1871
sVriolu
p1872
VRiolu
p1873
sVlugia
p1874
VLugia
p1875
sVbulletseed
p1876
VBullet Seed
p1877
sVbubblebeam
p1878
VBubble Beam
p1879
sVmaxknuckle
p1880
VMax Knuckle
p1881
sVpoipole
p1882
VPoipole
p1883
sVtoxicthread
p1884
VToxic Thread
p1885
sVvenusaurgmax
p1886
VVenusaur-Gmax
p1887
sVarcanine
p1888
VArcanine
p1889
sVsneasel
p1890
VSneasel
p1891
sVgrassknot
p1892
VGrass Knot
p1893
sVauroraveil
p1894
VAurora Veil
p1895
sVklutz
p1896
VKlutz
p1897
sVpokestarspirit
p1898
VPokestar Spirit
p1899
sVbulldoze
p1900
VBulldoze
p1901
sVfocusenergy
p1902
VFocus Energy
p1903
sVscreencleaner
p1904
VScreen Cleaner
p1905
sVmimikyutotem
p1906
VMimikyu-Totem
p1907
sVprimordialsea
p1908
VPrimordial Sea
p1909
sVsnugglow
p1910
VSnugglow
p1911
sVkabuto
p1912
VKabuto
p1913
sVcoaching
p1914
VCoaching
p1915
sVscyther
p1916
VScyther
p1917
sVmail
p1918
VMail
p1919
sVfuryswipes
p1920
VFury Swipes
p1921
sVlonely
p1922
VLonely
p1923
sVfling
p1924
VFling
p1925
sVrattled
p1926
VRattled
p1927
sVinsomnia
p1928
VInsomnia
p1929
sVwatermemory
p1930
VWater Memory
p1931
sVfusionflare
p1932
VFusion Flare
p1933
sVsafariball
p1934
VSafari Ball
p1935
sVjustyke
p1936
VJustyke
p1937
sVeffectspore
p1938
VEffect Spore
p1939
sVboomburst
p1940
VBoomburst
p1941
sVregice
p1942
VRegice
p1943
sVlinoone
p1944
VLinoone
p1945
sValtariamega
p1946
VAltaria-Mega
p1947
sVpowerconstruct
p1948
VPower Construct
p1949
sVsynchronize
p1950
VSynchronize
p1951
sVgust
p1952
VGust
p1953
sVsilvallyghost
p1954
VSilvally-Ghost
p1955
sVmantine
p1956
VMantine
p1957
sVglalie
p1958
VGlalie
p1959
sVpsyduck
p1960
VPsyduck
p1961
sVmentalherb
p1962
VMental Herb
p1963
sVswalot
p1964
VSwalot
p1965
sVglaceon
p1966
VGlaceon
p1967
sVporygonz
p1968
VPorygon-Z
p1969
sVcrackedpot
p1970
VCracked Pot
p1971
sVclobbopus
p1972
VClobbopus
p1973
sVstrugglebug
p1974
VStruggle Bug
p1975
sVwonderguard
p1976
VWonder Guard
p1977
sVcorkscrewcrash
p1978
VCorkscrew Crash
p1979
sVgmaxsweetness
p1980
VG-Max Sweetness
p1981
sVsinisterarrowraid
p1982
VSinister Arrow Raid
p1983
sVextremeevoboost
p1984
VExtreme Evoboost
p1985
sVprismarmor
p1986
VPrism Armor
p1987
sVsandslashalola
p1988
VSandslash-Alola
p1989
sVlycanroc
p1990
VLycanroc
p1991
sVshaymin
p1992
VShaymin
p1993
sVpidove
p1994
VPidove
p1995
sVrockiumz
p1996
VRockium Z
p1997
sVarctozolt
p1998
VArctozolt
p1999
sVskillswap
p2000
VSkill Swap
p2001
sVtorracat
p2002
VTorracat
p2003
sVrotomfan
p2004
VRotom-Fan
p2005
sVassurance
p2006
VAssurance
p2007
sVpoochyena
p2008
VPoochyena
p2009
sVpokestarblackdoor
p2010
VPokestar Black Door
p2011
sVsignalbeam
p2012
VSignal Beam
p2013
sVporygon2
p2014
VPorygon2
p2015
sVtoxicroak
p2016
VToxicroak
p2017
sVsteelwing
p2018
VSteel Wing
p2019
sVvisegrip
p2020
VVise Grip
p2021
sVunown
p2022
VUnown
p2023
sVbitterberry
p2024
VBitter Berry
p2025
sVpoliwhirl
p2026
VPoliwhirl
p2027
sVpetilil
p2028
VPetilil
p2029
sVwatmelberry
p2030
VWatmel Berry
p2031
sVstufful
p2032
VStufful
p2033
sVmorpeko
p2034
VMorpeko
p2035
sVeldegoss
p2036
VEldegoss
p2037
sVastralbarrage
p2038
VAstral Barrage
p2039
sVmeloettapirouette
p2040
VMeloetta-Pirouette
p2041
sVnidorina
p2042
VNidorina
p2043
sVhypnosis
p2044
VHypnosis
p2045
sVdurinberry
p2046
VDurin Berry
p2047
sVdragonrage
p2048
VDragon Rage
p2049
sVjolteon
p2050
VJolteon
p2051
sVdefensecurl
p2052
VDefense Curl
p2053
sVnecturine
p2054
VNecturine
p2055
sVflowersweet
p2056
VFlower Sweet
p2057
sVflapple
p2058
VFlapple
p2059
sVthundercage
p2060
VThunder Cage
p2061
sVchikorita
p2062
VChikorita
p2063
sVdarumakagalar
p2064
VDarumaka-Galar
p2065
sVrockyhelmet
p2066
VRocky Helmet
p2067
sVcrucibelle
p2068
VCrucibelle
p2069
sVtr08
p2070
VTR08
p2071
sVtr09
p2072
VTR09
p2073
sVjabocaberry
p2074
VJaboca Berry
p2075
sVtr02
p2076
VTR02
p2077
sVtr03
p2078
VTR03
p2079
sVteatime
p2080
VTeatime
p2081
sVtr01
p2082
VTR01
p2083
sVtr06
p2084
VTR06
p2085
sVtr07
p2086
VTR07
p2087
sVtr04
p2088
VTR04
p2089
sVtr05
p2090
VTR05
p2091
sViceshard
p2092
VIce Shard
p2093
sVgiratina
p2094
VGiratina
p2095
sVteravolt
p2096
VTeravolt
p2097
sVbite
p2098
VBite
p2099
sVrustedsword
p2100
VRusted Sword
p2101
sVduosion
p2102
VDuosion
p2103
sVaromatherapy
p2104
VAromatherapy
p2105
sVsleeptalk
p2106
VSleep Talk
p2107
sVsappyseed
p2108
VSappy Seed
p2109
sVconfuseray
p2110
VConfuse Ray
p2111
sVfilter
p2112
VFilter
p2113
sVgliscor
p2114
VGliscor
p2115
sVseedot
p2116
VSeedot
p2117
sVsnatch
p2118
VSnatch
p2119
sVslakoth
p2120
VSlakoth
p2121
sVbunnelby
p2122
VBunnelby
p2123
sVdrapion
p2124
VDrapion
p2125
sVpeck
p2126
VPeck
p2127
sVmelmetalgmax
p2128
VMelmetal-Gmax
p2129
sVchespin
p2130
VChespin
p2131
sVghostmemory
p2132
VGhost Memory
p2133
sVkartana
p2134
VKartana
p2135
sVmawilite
p2136
VMawilite
p2137
sVfloatyfall
p2138
VFloaty Fall
p2139
sVsalazzletotem
p2140
VSalazzle-Totem
p2141
sVgarbodor
p2142
VGarbodor
p2143
sVtrickortreat
p2144
VTrick-or-Treat
p2145
sVcursedbody
p2146
VCursed Body
p2147
sVcubone
p2148
VCubone
p2149
sVhiddenpowerrock
p2150
VHidden Power Rock
p2151
sVrazzberry
p2152
VRazz Berry
p2153
sVlick
p2154
VLick
p2155
sVlovesweet
p2156
VLove Sweet
p2157
sVpluffle
p2158
VPluffle
p2159
sVsilvallyrock
p2160
VSilvally-Rock
p2161
sViceberry
p2162
VIce Berry
p2163
sVsandstream
p2164
VSand Stream
p2165
sVledyba
p2166
VLedyba
p2167
sVaquatail
p2168
VAqua Tail
p2169
sVarceusdark
p2170
VArceus-Dark
p2171
sVsnorunt
p2172
VSnorunt
p2173
sVkrilowatt
p2174
VKrilowatt
p2175
sVrecover
p2176
VRecover
p2177
sVflyingmemory
p2178
VFlying Memory
p2179
sVconversion
p2180
VConversion
p2181
sVelectrode
p2182
VElectrode
p2183
sVreckless
p2184
VReckless
p2185
sVcharjabug
p2186
VCharjabug
p2187
sVhiddenpowerdark
p2188
VHidden Power Dark
p2189
sVmetalsound
p2190
VMetal Sound
p2191
sVarghonaut
p2192
VArghonaut
p2193
sVbeedrill
p2194
VBeedrill
p2195
sVsurf
p2196
VSurf
p2197
sVgriseousorb
p2198
VGriseous Orb
p2199
sVneverendingnightmare
p2200
VNever-Ending Nightmare
p2201
sVmountaineer
p2202
VMountaineer
p2203
sVstunky
p2204
VStunky
p2205
sVtrace
p2206
VTrace
p2207
sVquagsire
p2208
VQuagsire
p2209
sVgeargrind
p2210
VGear Grind
p2211
sVdarkrai
p2212
VDarkrai
p2213
sVbarrage
p2214
VBarrage
p2215
sVbonemerang
p2216
VBonemerang
p2217
sVultranecroziumz
p2218
VUltranecrozium Z
p2219
sVstunfisk
p2220
VStunfisk
p2221
sVcorviknightgmax
p2222
VCorviknight-Gmax
p2223
sVadaptability
p2224
VAdaptability
p2225
sVespurr
p2226
VEspurr
p2227
sVleaftornado
p2228
VLeaf Tornado
p2229
sVhyperfang
p2230
VHyper Fang
p2231
sVdracoplate
p2232
VDraco Plate
p2233
sVhyperspacefury
p2234
VHyperspace Fury
p2235
sVelectirizer
p2236
VElectirizer
p2237
sVmollux
p2238
VMollux
p2239
sVmuddywater
p2240
VMuddy Water
p2241
sVmothim
p2242
VMothim
p2243
sVlifeorb
p2244
VLife Orb
p2245
sVdelphox
p2246
VDelphox
p2247
sVbrattler
p2248
VBrattler
p2249
sVhakamoo
p2250
VHakamo-o
p2251
sVtintedlens
p2252
VTinted Lens
p2253
sVgolurk
p2254
VGolurk
p2255
sVfigyberry
p2256
VFigy Berry
p2257
sVgoodra
p2258
VGoodra
p2259
sVdrumbeating
p2260
VDrum Beating
p2261
sVrevenankh
p2262
VRevenankh
p2263
sVvolbeat
p2264
VVolbeat
p2265
sVpulverizingpancake
p2266
VPulverizing Pancake
p2267
sVemergencyexit
p2268
VEmergency Exit
p2269
sVupgrade
p2270
VUp-Grade
p2271
sVburndrive
p2272
VBurn Drive
p2273
sVpartingshot
p2274
VParting Shot
p2275
sVpatrat
p2276
VPatrat
p2277
sVacupressure
p2278
VAcupressure
p2279
sVanalytic
p2280
VAnalytic
p2281
sVsilvallysteel
p2282
VSilvally-Steel
p2283
sVprobopass
p2284
VProbopass
p2285
sVoutrage
p2286
VOutrage
p2287
sVleavanny
p2288
VLeavanny
p2289
sVlycanrocmidnight
p2290
VLycanroc-Midnight
p2291
sVkinesis
p2292
VKinesis
p2293
sVweaknesspolicy
p2294
VWeakness Policy
p2295
sVstomp
p2296
VStomp
p2297
sVpersianalola
p2298
VPersian-Alola
p2299
sVmimikiumz
p2300
VMimikium Z
p2301
sVmaxstarfall
p2302
VMax Starfall
p2303
sVsmogecko
p2304
VSmogecko
p2305
sVboneclub
p2306
VBone Club
p2307
sVindeedeef
p2308
VIndeedee-F
p2309
sVtelekinesis
p2310
VTelekinesis
p2311
sVmoxie
p2312
VMoxie
p2313
sVcelebrate
p2314
VCelebrate
p2315
sVshuppet
p2316
VShuppet
p2317
sVparkball
p2318
VPark Ball
p2319
sVsandaconda
p2320
VSandaconda
p2321
sVzeraora
p2322
VZeraora
p2323
sVcupra
p2324
VCupra
p2325
sVlatiasite
p2326
VLatiasite
p2327
sVspewpa
p2328
VSpewpa
p2329
sVpokestarwhitedoor
p2330
VPokestar White Door
p2331
sVwonderskin
p2332
VWonder Skin
p2333
sVhiddenpowerfighting
p2334
VHidden Power Fighting
p2335
sVballfetch
p2336
VBall Fetch
p2337
sVimposter
p2338
VImposter
p2339
sVspore
p2340
VSpore
p2341
sVnecrozmaultra
p2342
VNecrozma-Ultra
p2343
sVkommoniumz
p2344
VKommonium Z
p2345
sVbaddreams
p2346
VBad Dreams
p2347
sVfirestone
p2348
VFire Stone
p2349
sVdetect
p2350
VDetect
p2351
sVsteadfast
p2352
VSteadfast
p2353
sVlimber
p2354
VLimber
p2355
sVbatonpass
p2356
VBaton Pass
p2357
sVbeakblast
p2358
VBeak Blast
p2359
sVforecast
p2360
VForecast
p2361
sVwhiscash
p2362
VWhiscash
p2363
sVsnowwarning
p2364
VSnow Warning
p2365
sVfalinks
p2366
VFalinks
p2367
sVjustified
p2368
VJustified
p2369
sVghostiumz
p2370
VGhostium Z
p2371
sVdamprock
p2372
VDamp Rock
p2373
sVhariyama
p2374
VHariyama
p2375
sVcrawdaunt
p2376
VCrawdaunt
p2377
sVpluck
p2378
VPluck
p2379
sVgmaxsandblast
p2380
VG-Max Sandblast
p2381
sVfuryattack
p2382
VFury Attack
p2383
sVroseincense
p2384
VRose Incense
p2385
sVspiderweb
p2386
VSpider Web
p2387
sVbrutalswing
p2388
VBrutal Swing
p2389
sVdestinyknot
p2390
VDestiny Knot
p2391
sVluminousmoss
p2392
VLuminous Moss
p2393
sVvivillonpokeball
p2394
VVivillon-Pokeball
p2395
sVsteelix
p2396
VSteelix
p2397
sVnestball
p2398
VNest Ball
p2399
sVberry
p2400
VBerry
p2401
sVcellbattery
p2402
VCell Battery
p2403
sVpheromosa
p2404
VPheromosa
p2405
sVwingattack
p2406
VWing Attack
p2407
sVnormalgem
p2408
VNormal Gem
p2409
sVstrangesteam
p2410
VStrange Steam
p2411
sVsmartstrike
p2412
VSmart Strike
p2413
sVhiddenpowersteel
p2414
VHidden Power Steel
p2415
sVtyranitarite
p2416
VTyranitarite
p2417
sVdodrio
p2418
VDodrio
p2419
sVtapubulu
p2420
VTapu Bulu
p2421
sVstancechange
p2422
VStance Change
p2423
sVzapdos
p2424
VZapdos
p2425
sVendeavor
p2426
VEndeavor
p2427
sViceburn
p2428
VIce Burn
p2429
sVrunaway
p2430
VRun Away
p2431
sVlandswrath
p2432
VLand's Wrath
p2433
sVmawilemega
p2434
VMawile-Mega
p2435
sVdewpider
p2436
VDewpider
p2437
sVlightmetal
p2438
VLight Metal
p2439
sVcopperajah
p2440
VCopperajah
p2441
sVburntberry
p2442
VBurnt Berry
p2443
sVstunspore
p2444
VStun Spore
p2445
sVxerneas
p2446
VXerneas
p2447
sVpoweruppunch
p2448
VPower-Up Punch
p2449
sVhighjumpkick
p2450
VHigh Jump Kick
p2451
sVpokestarsmeargle
p2452
VPokestar Smeargle
p2453
sVheatrock
p2454
VHeat Rock
p2455
sVlopunnymega
p2456
VLopunny-Mega
p2457
sVwhirlipede
p2458
VWhirlipede
p2459
sVtr15
p2460
VTR15
p2461
sVtr14
p2462
VTR14
p2463
sVtr17
p2464
VTR17
p2465
sVtr16
p2466
VTR16
p2467
sVtr11
p2468
VTR11
p2469
sVtr10
p2470
VTR10
p2471
sVtr13
p2472
VTR13
p2473
sVtr12
p2474
VTR12
p2475
sVomanyte
p2476
VOmanyte
p2477
sVunnerve
p2478
VUnnerve
p2479
sVstormthrow
p2480
VStorm Throw
p2481
sVhealblock
p2482
VHeal Block
p2483
sVtr18
p2484
VTR18
p2485
sVswanna
p2486
VSwanna
p2487
sVskiddo
p2488
VSkiddo
p2489
sVcareful
p2490
VCareful
p2491
sVmudshot
p2492
VMud Shot
p2493
sVclangoroussoulblaze
p2494
VClangorous Soulblaze
p2495
sVdryskin
p2496
VDry Skin
p2497
sVsteelworker
p2498
VSteelworker
p2499
sVdefeatist
p2500
VDefeatist
p2501
sVbugmemory
p2502
VBug Memory
p2503
sVtrick
p2504
VTrick
p2505
sVlandorus
p2506
VLandorus
p2507
sVgroudon
p2508
VGroudon
p2509
sVspotlight
p2510
VSpotlight
p2511
sVrhyhorn
p2512
VRhyhorn
p2513
sVquiet
p2514
VQuiet
p2515
sVpolteageistantique
p2516
VPolteageist-Antique
p2517
sVshadowclaw
p2518
VShadow Claw
p2519
sVsacredfire
p2520
VSacred Fire
p2521
sVmonferno
p2522
VMonferno
p2523
sVgourgeistlarge
p2524
VGourgeist-Large
p2525
sVcubchoo
p2526
VCubchoo
p2527
sVprimariumz
p2528
VPrimarium Z
p2529
sVhiddenpowerice
p2530
VHidden Power Ice
p2531
sVextremespeed
p2532
VExtreme Speed
p2533
sVtakedown
p2534
VTake Down
p2535
sVphantomforce
p2536
VPhantom Force
p2537
sVstrongjaw
p2538
VStrong Jaw
p2539
sVbrionne
p2540
VBrionne
p2541
sVkrookodile
p2542
VKrookodile
p2543
sVnuzzle
p2544
VNuzzle
p2545
sVthunderbolt
p2546
VThunderbolt
p2547
sVgenesectshock
p2548
VGenesect-Shock
p2549
sVmagnetbomb
p2550
VMagnet Bomb
p2551
sVassist
p2552
VAssist
p2553
sVgmaxstunshock
p2554
VG-Max Stun Shock
p2555
sVbulletproof
p2556
VBulletproof
p2557
sVsteelgem
p2558
VSteel Gem
p2559
sVpangoro
p2560
VPangoro
p2561
sVhypervoice
p2562
VHyper Voice
p2563
sVminimize
p2564
VMinimize
p2565
sVmaxsteelspike
p2566
VMax Steelspike
p2567
sVdoublehit
p2568
VDouble Hit
p2569
sVmedicham
p2570
VMedicham
p2571
sVmrmime
p2572
VMr. Mime
p2573
sVrockgem
p2574
VRock Gem
p2575
sVspark
p2576
VSpark
p2577
sVrunerigus
p2578
VRunerigus
p2579
sVdrampa
p2580
VDrampa
p2581
sVrazorwind
p2582
VRazor Wind
p2583
sVfurcoat
p2584
VFur Coat
p2585
sVhealingwish
p2586
VHealing Wish
p2587
sVquickguard
p2588
VQuick Guard
p2589
sVpowerband
p2590
VPower Band
p2591
sVwingull
p2592
VWingull
p2593
sVrest
p2594
VRest
p2595
sVfurfrou
p2596
VFurfrou
p2597
sVchimchar
p2598
VChimchar
p2599
sVpoisonmemory
p2600
VPoison Memory
p2601
sVrazorclaw
p2602
VRazor Claw
p2603
sVdragonbreath
p2604
VDragon Breath
p2605
sVsearingsunrazesmash
p2606
VSearing Sunraze Smash
p2607
sVelgyem
p2608
VElgyem
p2609
sVduskull
p2610
VDuskull
p2611
sVcometpunch
p2612
VComet Punch
p2613
sVaerialace
p2614
VAerial Ace
p2615
sVparas
p2616
VParas
p2617
sVrayquazamega
p2618
VRayquaza-Mega
p2619
sVbudew
p2620
VBudew
p2621
sVflareblitz
p2622
VFlare Blitz
p2623
sVmaxrockfall
p2624
VMax Rockfall
p2625
sValcremiegmax
p2626
VAlcremie-Gmax
p2627
sVuxie
p2628
VUxie
p2629
sVfossilizeddrake
p2630
VFossilized Drake
p2631
sVxurkitree
p2632
VXurkitree
p2633
sVtrubbish
p2634
VTrubbish
p2635
sVmeteorbeam
p2636
VMeteor Beam
p2637
sVsnarl
p2638
VSnarl
p2639
sVmachpunch
p2640
VMach Punch
p2641
sVrillaboom
p2642
VRillaboom
p2643
sVyveltal
p2644
VYveltal
p2645
sVvolkraken
p2646
VVolkraken
p2647
sVsunkern
p2648
VSunkern
p2649
sVjunglehealing
p2650
VJungle Healing
p2651
sVbreakneckblitz
p2652
VBreakneck Blitz
p2653
sVcolossoil
p2654
VColossoil
p2655
sVdreamball
p2656
VDream Ball
p2657
sVsnore
p2658
VSnore
p2659
sVfloatstone
p2660
VFloat Stone
p2661
sVskiploom
p2662
VSkiploom
p2663
sVfishiousrend
p2664
VFishious Rend
p2665
sVzingzap
p2666
VZing Zap
p2667
sVvoltswitch
p2668
VVolt Switch
p2669
sVmeltan
p2670
VMeltan
p2671
sVarceusrock
p2672
VArceus-Rock
p2673
sVbrightpowder
p2674
VBright Powder
p2675
sVhypercutter
p2676
VHyper Cutter
p2677
sVvanillite
p2678
VVanillite
p2679
sVchoiceband
p2680
VChoice Band
p2681
sVobstruct
p2682
VObstruct
p2683
sVheartswap
p2684
VHeart Swap
p2685
sVsubzeroslammer
p2686
VSubzero Slammer
p2687
sVchesnaught
p2688
VChesnaught
p2689
sVpinapberry
p2690
VPinap Berry
p2691
sVminccino
p2692
VMinccino
p2693
sVbellsprout
p2694
VBellsprout
p2695
sVprinplup
p2696
VPrinplup
p2697
sVaudinomega
p2698
VAudino-Mega
p2699
sVmachoke
p2700
VMachoke
p2701
sVultraball
p2702
VUltra Ball
p2703
sVcrustle
p2704
VCrustle
p2705
sVpowergem
p2706
VPower Gem
p2707
sVechoedvoice
p2708
VEchoed Voice
p2709
sVbattlearmor
p2710
VBattle Armor
p2711
sVvolcanion
p2712
VVolcanion
p2713
sVcastformsnowy
p2714
VCastform-Snowy
p2715
sVraticatealolatotem
p2716
VRaticate-Alola-Totem
p2717
sVhustle
p2718
VHustle
p2719
sVthroh
p2720
VThroh
p2721
sVmultitype
p2722
VMultitype
p2723
sVinnerfocus
p2724
VInner Focus
p2725
sVbasculinbluestriped
p2726
VBasculin-Blue-Striped
p2727
sVdragonhammer
p2728
VDragon Hammer
p2729
sVhornattack
p2730
VHorn Attack
p2731
sVslowbrogalar
p2732
VSlowbro-Galar
p2733
sVcomfey
p2734
VComfey
p2735
sVzapcannon
p2736
VZap Cannon
p2737
sVroar
p2738
VRoar
p2739
sVlockon
p2740
VLock-On
p2741
sVtoxtricity
p2742
VToxtricity
p2743
sVfloette
p2744
VFloette
p2745
sVgengar
p2746
VGengar
p2747
sVshellsidearm
p2748
VShell Side Arm
p2749
sVaudino
p2750
VAudino
p2751
sVpokestarufo2
p2752
VPokestar UFO-2
p2753
sVcustapberry
p2754
VCustap Berry
p2755
sVsearingshot
p2756
VSearing Shot
p2757
sVmaxlightning
p2758
VMax Lightning
p2759
sVprankster
p2760
VPrankster
p2761
sVfennekin
p2762
VFennekin
p2763
sVshadowpunch
p2764
VShadow Punch
p2765
sVfocuspunch
p2766
VFocus Punch
p2767
sVcottondown
p2768
VCotton Down
p2769
sVdazzling
p2770
VDazzling
p2771
sVtoughclaws
p2772
VTough Claws
p2773
sVforewarn
p2774
VForewarn
p2775
sViciclespear
p2776
VIcicle Spear
p2777
sVchillingneigh
p2778
VChilling Neigh
p2779
sVpyroak
p2780
VPyroak
p2781
sVcorvisquire
p2782
VCorvisquire
p2783
sVgigalith
p2784
VGigalith
p2785
sVsacredsword
p2786
VSacred Sword
p2787
sVhex
p2788
VHex
p2789
sVkeldeo
p2790
VKeldeo
p2791
sVmarill
p2792
VMarill
p2793
sVprimarina
p2794
VPrimarina
p2795
sVsymbiosis
p2796
VSymbiosis
p2797
sVgalvanize
p2798
VGalvanize
p2799
sVwillowisp
p2800
VWill-O-Wisp
p2801
sVbubble
p2802
VBubble
p2803
sVfastball
p2804
VFast Ball
p2805
sVdragapult
p2806
VDragapult
p2807
sVglaciate
p2808
VGlaciate
p2809
sVmoltresgalar
p2810
VMoltres-Galar
p2811
sVnightshade
p2812
VNight Shade
p2813
sVsizzlyslide
p2814
VSizzly Slide
p2815
sVfrogadier
p2816
VFrogadier
p2817
sVporygon
p2818
VPorygon
p2819
sVgripclaw
p2820
VGrip Claw
p2821
sVvitalspirit
p2822
VVital Spirit
p2823
sVcrabominable
p2824
VCrabominable
p2825
sVrage
p2826
VRage
p2827
sVsandshrewalola
p2828
VSandshrew-Alola
p2829
sVvictorystar
p2830
VVictory Star
p2831
sVvinewhip
p2832
VVine Whip
p2833
sVstoneplate
p2834
VStone Plate
p2835
sVember
p2836
VEmber
p2837
sVmilcery
p2838
VMilcery
p2839
sVsplashplate
p2840
VSplash Plate
p2841
sVpowdersnow
p2842
VPowder Snow
p2843
sVtr61
p2844
VTR61
p2845
sVtr62
p2846
VTR62
p2847
sVtr63
p2848
VTR63
p2849
sVtr64
p2850
VTR64
p2851
sVgrepaberry
p2852
VGrepa Berry
p2853
sVtr66
p2854
VTR66
p2855
sVtr67
p2856
VTR67
p2857
sVtr68
p2858
VTR68
p2859
sVtr69
p2860
VTR69
p2861
sVmaxphantasm
p2862
VMax Phantasm
p2863
sVpyroball
p2864
VPyro Ball
p2865
sVsmokescreen
p2866
VSmokescreen
p2867
sVmoonblast
p2868
VMoonblast
p2869
sVcolburberry
p2870
VColbur Berry
p2871
sVsilvallydragon
p2872
VSilvally-Dragon
p2873
sVleafstorm
p2874
VLeaf Storm
p2875
sVhydrovortex
p2876
VHydro Vortex
p2877
sVcresselia
p2878
VCresselia
p2879
sVkinglergmax
p2880
VKingler-Gmax
p2881
sVsoulstealing7starstrike
p2882
VSoul-Stealing 7-Star Strike
p2883
sVbreloom
p2884
VBreloom
p2885
sVstalwart
p2886
VStalwart
p2887
sVimmunity
p2888
VImmunity
p2889
sVtangela
p2890
VTangela
p2891
sVcharizard
p2892
VCharizard
p2893
sVblipbug
p2894
VBlipbug
p2895
sVgolem
p2896
VGolem
p2897
sVtr19
p2898
VTR19
p2899
sVmirrorcoat
p2900
VMirror Coat
p2901
sVemboar
p2902
VEmboar
p2903
sVpowerspot
p2904
VPower Spot
p2905
sVdustox
p2906
VDustox
p2907
sVrootfossil
p2908
VRoot Fossil
p2909
sVmetagrossmega
p2910
VMetagross-Mega
p2911
sVzigzagoon
p2912
VZigzagoon
p2913
sVtackle
p2914
VTackle
p2915
sVgmaxreplenish
p2916
VG-Max Replenish
p2917
sVgmaxrapidflow
p2918
VG-Max Rapid Flow
p2919
sVpopplio
p2920
VPopplio
p2921
sVrotomwash
p2922
VRotom-Wash
p2923
sVlatios
p2924
VLatios
p2925
sVgrudge
p2926
VGrudge
p2927
sVcyndaquil
p2928
VCyndaquil
p2929
sVblueflare
p2930
VBlue Flare
p2931
sVdefog
p2932
VDefog
p2933
sVberserkgene
p2934
VBerserk Gene
p2935
sVskyattack
p2936
VSky Attack
p2937
sVcramorantgorging
p2938
VCramorant-Gorging
p2939
sVmoonlight
p2940
VMoonlight
p2941
sVmimic
p2942
VMimic
p2943
sVstockpile
p2944
VStockpile
p2945
sVfrosmoth
p2946
VFrosmoth
p2947
sVoddincense
p2948
VOdd Incense
p2949
sVmeloetta
p2950
VMeloetta
p2951
sVgardevoirmega
p2952
VGardevoir-Mega
p2953
sVlairon
p2954
VLairon
p2955
sVeerieimpulse
p2956
VEerie Impulse
p2957
sVscrappy
p2958
VScrappy
p2959
sVtogetic
p2960
VTogetic
p2961
sVfirepunch
p2962
VFire Punch
p2963
sVthunderouskick
p2964
VThunderous Kick
p2965
sVmicleberry
p2966
VMicle Berry
p2967
sVjolly
p2968
VJolly
p2969
sVsalandit
p2970
VSalandit
p2971
sVbewear
p2972
VBewear
p2973
sVgmaxfinale
p2974
VG-Max Finale
p2975
sVlightningrod
p2976
VLightning Rod
p2977
sVgigadrain
p2978
VGiga Drain
p2979
sVsilverpowder
p2980
VSilver Powder
p2981
sVclamperl
p2982
VClamperl
p2983
sVorbeetlegmax
p2984
VOrbeetle-Gmax
p2985
sVvanillish
p2986
VVanillish
p2987
sVvenomdrench
p2988
VVenom Drench
p2989
sVbayleef
p2990
VBayleef
p2991
sVhondewberry
p2992
VHondew Berry
p2993
sVbloomdoom
p2994
VBloom Doom
p2995
sVfossilizedfish
p2996
VFossilized Fish
p2997
sVnoretreat
p2998
VNo Retreat
p2999
sVplasmafists
p3000
VPlasma Fists
p3001
sVtyranitarmega
p3002
VTyranitar-Mega
p3003
sVicepunch
p3004
VIce Punch
p3005
sVgalvantula
p3006
VGalvantula
p3007
sVshinystone
p3008
VShiny Stone
p3009
sVcombusken
p3010
VCombusken
p3011
sVcloudnine
p3012
VCloud Nine
p3013
sVmienshao
p3014
VMienshao
p3015
sVkeeberry
p3016
VKee Berry
p3017
sVsteameruption
p3018
VSteam Eruption
p3019
sVmild
p3020
VMild
p3021
sVscrafty
p3022
VScrafty
p3023
sVnoability
p3024
VNo Ability
p3025
sVsecretpower
p3026
VSecret Power
p3027
sVshadowtag
p3028
VShadow Tag
p3029
sVpidgeotmega
p3030
VPidgeot-Mega
p3031
sVmagearnaoriginal
p3032
VMagearna-Original
p3033
sVdoublekick
p3034
VDouble Kick
p3035
sVsandtomb
p3036
VSand Tomb
p3037
sVflorges
p3038
VFlorges
p3039
sVgourgeistsuper
p3040
VGourgeist-Super
p3041
sVironbarbs
p3042
VIron Barbs
p3043
sValtaria
p3044
VAltaria
p3045
sVcrushgrip
p3046
VCrush Grip
p3047
sVmagikarp
p3048
VMagikarp
p3049
sVmeowthgmax
p3050
VMeowth-Gmax
p3051
sVseedbomb
p3052
VSeed Bomb
p3053
sVmeganium
p3054
VMeganium
p3055
sVchipaway
p3056
VChip Away
p3057
sVmetalclaw
p3058
VMetal Claw
p3059
sVfeatherdance
p3060
VFeather Dance
p3061
sVshockwave
p3062
VShock Wave
p3063
sVironplate
p3064
VIron Plate
p3065
sVgreatball
p3066
VGreat Ball
p3067
sVfellstinger
p3068
VFell Stinger
p3069
sVwateriumz
p3070
VWaterium Z
p3071
sVfightiniumz
p3072
VFightinium Z
p3073
sVheartstamp
p3074
VHeart Stamp
p3075
sVtoxel
p3076
VToxel
p3077
sVboldore
p3078
VBoldore
p3079
sVcombee
p3080
VCombee
p3081
sVdragonfang
p3082
VDragon Fang
p3083
sVgastly
p3084
VGastly
p3085
sVrevenge
p3086
VRevenge
p3087
sVclearsmog
p3088
VClear Smog
p3089
sVgmaxhydrosnipe
p3090
VG-Max Hydrosnipe
p3091
sVvenusaurmega
p3092
VVenusaur-Mega
p3093
sVinfernape
p3094
VInfernape
p3095
sVdecidiumz
p3096
VDecidium Z
p3097
sVaromatisse
p3098
VAromatisse
p3099
sVbattlebond
p3100
VBattle Bond
p3101
sVkyuremwhite
p3102
VKyurem-White
p3103
sVpokestarhumanoid
p3104
VPokestar Humanoid
p3105
sVacidspray
p3106
VAcid Spray
p3107
sViciumz
p3108
VIcium Z
p3109
sVpowerbracer
p3110
VPower Bracer
p3111
sVwringout
p3112
VWring Out
p3113
sVperishbody
p3114
VPerish Body
p3115
sVstarly
p3116
VStarly
p3117
sVsweetveil
p3118
VSweet Veil
p3119
sVgolett
p3120
VGolett
p3121
sVinciniumz
p3122
VIncinium Z
p3123
sVgyaradosmega
p3124
VGyarados-Mega
p3125
sVgallade
p3126
VGallade
p3127
sVoranguru
p3128
VOranguru
p3129
sVledian
p3130
VLedian
p3131
sVcutiefly
p3132
VCutiefly
p3133
sVscraggy
p3134
VScraggy
p3135
sVelectricseed
p3136
VElectric Seed
p3137
sVluvdisc
p3138
VLuvdisc
p3139
sVhelixfossil
p3140
VHelix Fossil
p3141
sVsavagespinout
p3142
VSavage Spin-Out
p3143
sVsplash
p3144
VSplash
p3145
sVbodypress
p3146
VBody Press
p3147
sVcawdet
p3148
VCawdet
p3149
sVanorith
p3150
VAnorith
p3151
sVfairiumz
p3152
VFairium Z
p3153
sVdizzypunch
p3154
VDizzy Punch
p3155
sVflyingpress
p3156
VFlying Press
p3157
sVmelmetal
p3158
VMelmetal
p3159
sVzapdosgalar
p3160
VZapdos-Galar
p3161
sVpumpkaboosuper
p3162
VPumpkaboo-Super
p3163
sVhorsea
p3164
VHorsea
p3165
sVstick
p3166
VStick
p3167
sVrazorfang
p3168
VRazor Fang
p3169
sVwatergem
p3170
VWater Gem
p3171
sVturboblaze
p3172
VTurboblaze
p3173
sVintrepidsword
p3174
VIntrepid Sword
p3175
sVunburden
p3176
VUnburden
p3177
sVfightinggem
p3178
VFighting Gem
p3179
sVnaturalgift
p3180
VNatural Gift
p3181
sVenergypowder
p3182
VEnergy Powder
p3183
sVchartiberry
p3184
VCharti Berry
p3185
sVlumberry
p3186
VLum Berry
p3187
sVthwackey
p3188
VThwackey
p3189
sVvoltorb
p3190
VVoltorb
p3191
sVappletun
p3192
VAppletun
p3193
sVshadowshield
p3194
VShadow Shield
p3195
sVskyplate
p3196
VSky Plate
p3197
sVsableye
p3198
VSableye
p3199
sVseviper
p3200
VSeviper
p3201
sVboltbeak
p3202
VBolt Beak
p3203
sVaurumoth
p3204
VAurumoth
p3205
sVflowerveil
p3206
VFlower Veil
p3207
sVstaryu
p3208
VStaryu
p3209
sVwishiwashi
p3210
VWishiwashi
p3211
sVshelltrap
p3212
VShell Trap
p3213
sVwikiberry
p3214
VWiki Berry
p3215
sVwobbuffet
p3216
VWobbuffet
p3217
sVmorgrem
p3218
VMorgrem
p3219
sVteleport
p3220
VTeleport
p3221
sVninetalesalola
p3222
VNinetales-Alola
p3223
sVshelmet
p3224
VShelmet
p3225
sVkommoototem
p3226
VKommo-o-Totem
p3227
sVglalitite
p3228
VGlalitite
p3229
sVflyinggem
p3230
VFlying Gem
p3231
sVbulkup
p3232
VBulk Up
p3233
sVeeriespell
p3234
VEerie Spell
p3235
sVtr73
p3236
VTR73
p3237
sVtr72
p3238
VTR72
p3239
sVtr71
p3240
VTR71
p3241
sVtr70
p3242
VTR70
p3243
sVtr77
p3244
VTR77
p3245
sVtr76
p3246
VTR76
p3247
sVtr75
p3248
VTR75
p3249
sVtr74
p3250
VTR74
p3251
sVelectricgem
p3252
VElectric Gem
p3253
sVtr79
p3254
VTR79
p3255
sVtr78
p3256
VTR78
p3257
sVshuckle
p3258
VShuckle
p3259
sVjynx
p3260
VJynx
p3261
sVreflect
p3262
VReflect
p3263
sVdisable
p3264
VDisable
p3265
sVliquidooze
p3266
VLiquid Ooze
p3267
sVmistyterrain
p3268
VMisty Terrain
p3269
sVfairygem
p3270
VFairy Gem
p3271
sVmedichammega
p3272
VMedicham-Mega
p3273
sVtwistedspoon
p3274
VTwisted Spoon
p3275
sVgmaxcuddle
p3276
VG-Max Cuddle
p3277
sVcalyrex
p3278
VCalyrex
p3279
sVmaxmindstorm
p3280
VMax Mindstorm
p3281
sVpineco
p3282
VPineco
p3283
sVcomatose
p3284
VComatose
p3285
sVretaliate
p3286
VRetaliate
p3287
sVgoldbottlecap
p3288
VGold Bottle Cap
p3289
sVoctolock
p3290
VOctolock
p3291
sVphantump
p3292
VPhantump
p3293
sVliquidvoice
p3294
VLiquid Voice
p3295
sVgolisopod
p3296
VGolisopod
p3297
sVdrakloak
p3298
VDrakloak
p3299
sVqueenlymajesty
p3300
VQueenly Majesty
p3301
sVcorphish
p3302
VCorphish
p3303
sVsteelbeam
p3304
VSteel Beam
p3305
sVangerpoint
p3306
VAnger Point
p3307
sVdarmanitangalar
p3308
VDarmanitan-Galar
p3309
sVgmaxvinelash
p3310
VG-Max Vine Lash
p3311
sVfissure
p3312
VFissure
p3313
sVvolcarona
p3314
VVolcarona
p3315
sVblackglasses
p3316
VBlack Glasses
p3317
sVplayrough
p3318
VPlay Rough
p3319
sVhealorder
p3320
VHeal Order
p3321
sVjigglypuff
p3322
VJigglypuff
p3323
sVsandslash
p3324
VSandslash
p3325
sVastonish
p3326
VAstonish
p3327
sVenergyball
p3328
VEnergy Ball
p3329
sVaggron
p3330
VAggron
p3331
sVfossilizedbird
p3332
VFossilized Bird
p3333
sVlampent
p3334
VLampent
p3335
sVfistplate
p3336
VFist Plate
p3337
sVreturn
p3338
VReturn
p3339
sVmanectricmega
p3340
VManectric-Mega
p3341
sVsnowball
p3342
VSnowball
p3343
sVsolarbeam
p3344
VSolar Beam
p3345
sVcharizardmegax
p3346
VCharizard-Mega-X
p3347
sVcharizardmegay
p3348
VCharizard-Mega-Y
p3349
sVclefable
p3350
VClefable
p3351
sVpokestarmt
p3352
VPokestar MT
p3353
sVskuntank
p3354
VSkuntank
p3355
sVprimeape
p3356
VPrimeape
p3357
sVgabite
p3358
VGabite
p3359
sVgrubbin
p3360
VGrubbin
p3361
sVmanaphy
p3362
VManaphy
p3363
sVstuffcheeks
p3364
VStuff Cheeks
p3365
sVmissingno
p3366
VMissingNo.
p3367
sVhooh
p3368
VHo-Oh
p3369
sVrefresh
p3370
VRefresh
p3371
sVcramorantgulping
p3372
VCramorant-Gulping
p3373
sVspoink
p3374
VSpoink
p3375
sVlovelykiss
p3376
VLovely Kiss
p3377
sVmeanlook
p3378
VMean Look
p3379
sVgumshoos
p3380
VGumshoos
p3381
sVclamp
p3382
VClamp
p3383
sVtopsyturvy
p3384
VTopsy-Turvy
p3385
sVquickfeet
p3386
VQuick Feet
p3387
sVweezinggalar
p3388
VWeezing-Galar
p3389
sVwatershuriken
p3390
VWater Shuriken
p3391
sVtsareena
p3392
VTsareena
p3393
sVmaxstrike
p3394
VMax Strike
p3395
sVmultiattack
p3396
VMulti-Attack
p3397
sVmagnezone
p3398
VMagnezone
p3399
sVtrickroom
p3400
VTrick Room
p3401
sVstoredpower
p3402
VStored Power
p3403
sVwatercompaction
p3404
VWater Compaction
p3405
sVhiddenpowerpsychic
p3406
VHidden Power Psychic
p3407
sVfidgit
p3408
VFidgit
p3409
sVsilvallyelectric
p3410
VSilvally-Electric
p3411
sVelectroweb
p3412
VElectroweb
p3413
sVkangaskhanmega
p3414
VKangaskhan-Mega
p3415
sVcopperajahgmax
p3416
VCopperajah-Gmax
p3417
sVsalamence
p3418
VSalamence
p3419
sVarceuswater
p3420
VArceus-Water
p3421
sVcherrim
p3422
VCherrim
p3423
sVsuperfang
p3424
VSuper Fang
p3425
sVsilvallyground
p3426
VSilvally-Ground
p3427
sVchoicescarf
p3428
VChoice Scarf
p3429
sVroggenrola
p3430
VRoggenrola
p3431
sVflashcannon
p3432
VFlash Cannon
p3433
sVblaziken
p3434
VBlaziken
p3435
sVironhead
p3436
VIron Head
p3437
sVsentret
p3438
VSentret
p3439
sVpichuspikyeared
p3440
VPichu-Spiky-eared
p3441
sVtyrogue
p3442
VTyrogue
p3443
sVdarkaura
p3444
VDark Aura
p3445
sVcleffa
p3446
VCleffa
p3447
sVguardsplit
p3448
VGuard Split
p3449
sVwaterabsorb
p3450
VWater Absorb
p3451
sVpunkrock
p3452
VPunk Rock
p3453
sVtoxicboost
p3454
VToxic Boost
p3455
sVninetales
p3456
VNinetales
p3457
sVnidoranf
p3458
VNidoran-F
p3459
sVcottonspore
p3460
VCotton Spore
p3461
sVnidoranm
p3462
VNidoran-M
p3463
sVparaboliccharge
p3464
VParabolic Charge
p3465
sVscopelens
p3466
VScope Lens
p3467
sVhydreigon
p3468
VHydreigon
p3469
sVrockpolish
p3470
VRock Polish
p3471
sVmightyena
p3472
VMightyena
p3473
sVabomasnowmega
p3474
VAbomasnow-Mega
p3475
sVsolganiumz
p3476
VSolganium Z
p3477
sVbrave
p3478
VBrave
p3479
sVcarkol
p3480
VCarkol
p3481
sVmist
p3482
VMist
p3483
sVapicotberry
p3484
VApicot Berry
p3485
sVpetaldance
p3486
VPetal Dance
p3487
sVmeowstic
p3488
VMeowstic
p3489
sVboltstrike
p3490
VBolt Strike
p3491
sVastrolotl
p3492
VAstrolotl
p3493
sVraikou
p3494
VRaikou
p3495
sVswarm
p3496
VSwarm
p3497
sVterrainpulse
p3498
VTerrain Pulse
p3499
sVbibarel
p3500
VBibarel
p3501
sVpsncureberry
p3502
VPSN Cure Berry
p3503
sVdazzlinggleam
p3504
VDazzling Gleam
p3505
sVlandorustherian
p3506
VLandorus-Therian
p3507
sVshedinja
p3508
VShedinja
p3509
sVpikashuniumz
p3510
VPikashunium Z
p3511
sVpsybeam
p3512
VPsybeam
p3513
sVsuckerpunch
p3514
VSucker Punch
p3515
sVoverdrive
p3516
VOverdrive
p3517
sVdragonascent
p3518
VDragon Ascent
p3519
sVfreezeshock
p3520
VFreeze Shock
p3521
sVpsywave
p3522
VPsywave
p3523
sVinferno
p3524
VInferno
p3525
sVsurgingstrikes
p3526
VSurging Strikes
p3527
sVwhiteherb
p3528
VWhite Herb
p3529
sVringtarget
p3530
VRing Target
p3531
sVvenipede
p3532
VVenipede
p3533
sVdarkpulse
p3534
VDark Pulse
p3535
sVyamask
p3536
VYamask
p3537
sVpokestarufopropu2
p3538
VPokestar UFO-PropU2
p3539
sVstall
p3540
VStall
p3541
sVsharpedonite
p3542
VSharpedonite
p3543
sVmerciless
p3544
VMerciless
p3545
sVdoubleedge
p3546
VDouble-Edge
p3547
sVremoraid
p3548
VRemoraid
p3549
sVclefairy
p3550
VClefairy
p3551
sVklink
p3552
VKlink
p3553
sVfirespin
p3554
VFire Spin
p3555
sVgenesectchill
p3556
VGenesect-Chill
p3557
sVsuicune
p3558
VSuicune
p3559
sVthundurustherian
p3560
VThundurus-Therian
p3561
sVpamtreberry
p3562
VPamtre Berry
p3563
sVmegahorn
p3564
VMegahorn
p3565
sVcontrary
p3566
VContrary
p3567
sVslowbromega
p3568
VSlowbro-Mega
p3569
sVzenmode
p3570
VZen Mode
p3571
sVsunflora
p3572
VSunflora
p3573
sVgmaxdrumsolo
p3574
VG-Max Drum Solo
p3575
sVsnorlaxgmax
p3576
VSnorlax-Gmax
p3577
sVgourgeist
p3578
VGourgeist
p3579
sVbarbaracle
p3580
VBarbaracle
p3581
sVairballoon
p3582
VAir Balloon
p3583
sVswirlix
p3584
VSwirlix
p3585
sVcoribalis
p3586
VCoribalis
p3587
sVlitleo
p3588
VLitleo
p3589
sVcamouflage
p3590
VCamouflage
p3591
sVfrillish
p3592
VFrillish
p3593
sVroselia
p3594
VRoselia
p3595
sVkangaskhan
p3596
VKangaskhan
p3597
sVregirock
p3598
VRegirock
p3599
sVheavydutyboots
p3600
VHeavy-Duty Boots
p3601
sVmagicpowder
p3602
VMagic Powder
p3603
sVswitcheroo
p3604
VSwitcheroo
p3605
sValakazammega
p3606
VAlakazam-Mega
p3607
sVmasterball
p3608
VMaster Ball
p3609
sVeruption
p3610
VEruption
p3611
sVyawn
p3612
VYawn
p3613
sVcharm
p3614
VCharm
p3615
sVdiglett
p3616
VDiglett
p3617
sVbeldum
p3618
VBeldum
p3619
sVhabanberry
p3620
VHaban Berry
p3621
sVcrosspoison
p3622
VCross Poison
p3623
sVcarvanha
p3624
VCarvanha
p3625
sVxerneasneutral
p3626
VXerneas-Neutral
p3627
sVrefrigerate
p3628
VRefrigerate
p3629
sVlowsweep
p3630
VLow Sweep
p3631
sVmaxflare
p3632
VMax Flare
p3633
sVcovet
p3634
VCovet
p3635
sVlax
p3636
VLax
p3637
sVlunala
p3638
VLunala
p3639
sVmarshadiumz
p3640
VMarshadium Z
p3641
sVgenesectdouse
p3642
VGenesect-Douse
p3643
sVkaratechop
p3644
VKarate Chop
p3645
sVworryseed
p3646
VWorry Seed
p3647
sVazumarill
p3648
VAzumarill
p3649
sVmetalburst
p3650
VMetal Burst
p3651
sVherdier
p3652
VHerdier
p3653
sVtr48
p3654
VTR48
p3655
sVtr49
p3656
VTR49
p3657
sVtr46
p3658
VTR46
p3659
sVtr47
p3660
VTR47
p3661
sVtr44
p3662
VTR44
p3663
sVtr45
p3664
VTR45
p3665
sVnanabberry
p3666
VNanab Berry
p3667
sVtr43
p3668
VTR43
p3669
sVtr40
p3670
VTR40
p3671
sVtr41
p3672
VTR41
p3673
sVzoomlens
p3674
VZoom Lens
p3675
sVblackbelt
p3676
VBlack Belt
p3677
sVhammerarm
p3678
VHammer Arm
p3679
sVobstagoon
p3680
VObstagoon
p3681
sVskwovet
p3682
VSkwovet
p3683
sVmagmaarmor
p3684
VMagma Armor
p3685
sVcrabrawler
p3686
VCrabrawler
p3687
sVpayday
p3688
VPay Day
p3689
sVgooey
p3690
VGooey
p3691
sVoblivionwing
p3692
VOblivion Wing
p3693
sVtyrantrum
p3694
VTyrantrum
p3695
sVhealpulse
p3696
VHeal Pulse
p3697
sVheadcharge
p3698
VHead Charge
p3699
sViceface
p3700
VIce Face
p3701
sVpawniard
p3702
VPawniard
p3703
sVnickit
p3704
VNickit
p3705
sVpoisontail
p3706
VPoison Tail
p3707
sVsnorliumz
p3708
VSnorlium Z
p3709
sVdocile
p3710
VDocile
p3711
sVfireblast
p3712
VFire Blast
p3713
sVmaliciousmoonsault
p3714
VMalicious Moonsault
p3715
sVshroomish
p3716
VShroomish
p3717
sVappletungmax
p3718
VAppletun-Gmax
p3719
sVwhismur
p3720
VWhismur
p3721
sVspikes
p3722
VSpikes
p3723
sVshadowstrike
p3724
VShadow Strike
p3725
sVheatcrash
p3726
VHeat Crash
p3727
sVskorupi
p3728
VSkorupi
p3729
sVgengarite
p3730
VGengarite
p3731
sVpokestartransport
p3732
VPokestar Transport
p3733
sVzarude
p3734
VZarude
p3735
sVpinkbow
p3736
VPink Bow
p3737
sVblitzle
p3738
VBlitzle
p3739
sVsparklyswirl
p3740
VSparkly Swirl
p3741
sVspeedswap
p3742
VSpeed Swap
p3743
sVlustrousorb
p3744
VLustrous Orb
p3745
sVflarelm
p3746
VFlarelm
p3747
sVfeint
p3748
VFeint
p3749
sVeternatus
p3750
VEternatus
p3751
sVtamatoberry
p3752
VTamato Berry
p3753
sVblazikenite
p3754
VBlazikenite
p3755
sVfarfetchd
p3756
VFarfetch\u2019d
p3757
sVinkay
p3758
VInkay
p3759
sVnecrozmaduskmane
p3760
VNecrozma-Dusk-Mane
p3761
sVdrednawgmax
p3762
VDrednaw-Gmax
p3763
sVpickup
p3764
VPickup
p3765
sVgravapple
p3766
VGrav Apple
p3767
sVtangaberry
p3768
VTanga Berry
p3769
sVkarrablast
p3770
VKarrablast
p3771
sVberserk
p3772
VBerserk
p3773
sVmarowak
p3774
VMarowak
p3775
sVmachobrace
p3776
VMacho Brace
p3777
sVsilvallywater
p3778
VSilvally-Water
p3779
sVelekid
p3780
VElekid
p3781
sVmagmortar
p3782
VMagmortar
p3783
sVchansey
p3784
VChansey
p3785
sVroaroftime
p3786
VRoar of Time
p3787
sVwildcharge
p3788
VWild Charge
p3789
sVgraveleralola
p3790
VGraveler-Alola
p3791
sVhoundoommega
p3792
VHoundoom-Mega
p3793
sVclaydol
p3794
VClaydol
p3795
sVrelicanth
p3796
VRelicanth
p3797
sVblunderpolicy
p3798
VBlunder Policy
p3799
sVtorchic
p3800
VTorchic
p3801
sVlapras
p3802
VLapras
p3803
sVmankey
p3804
VMankey
p3805
sVprotector
p3806
VProtector
p3807
sVraticatealola
p3808
VRaticate-Alola
p3809
sVshayminsky
p3810
VShaymin-Sky
p3811
sVsludgebomb
p3812
VSludge Bomb
p3813
sVstunfiskgalar
p3814
VStunfisk-Galar
p3815
sVsandile
p3816
VSandile
p3817
sVtyphlosion
p3818
VTyphlosion
p3819
sVbattery
p3820
VBattery
p3821
sVdrillpeck
p3822
VDrill Peck
p3823
sVpincurchin
p3824
VPincurchin
p3825
sVicebody
p3826
VIce Body
p3827
sVdancer
p3828
VDancer
p3829
sVjawlock
p3830
VJaw Lock
p3831
sVfearow
p3832
VFearow
p3833
sVxscissor
p3834
VX-Scissor
p3835
sVbellossom
p3836
VBellossom
p3837
sVquiverdance
p3838
VQuiver Dance
p3839
sVblastoisinite
p3840
VBlastoisinite
p3841
sVmegapunch
p3842
VMega Punch
p3843
sVchippedpot
p3844
VChipped Pot
p3845
sVdamp
p3846
VDamp
p3847
sVskitty
p3848
VSkitty
p3849
sVmienfoo
p3850
VMienfoo
p3851
sVearthquake
p3852
VEarthquake
p3853
sVpollenpuff
p3854
VPollen Puff
p3855
sVliepard
p3856
VLiepard
p3857
sVamnesia
p3858
VAmnesia
p3859
sVdestinybond
p3860
VDestiny Bond
p3861
sVcastform
p3862
VCastform
p3863
sVmeowthalola
p3864
VMeowth-Alola
p3865
sVdruddigon
p3866
VDruddigon
p3867
sVtaillow
p3868
VTaillow
p3869
sVbashful
p3870
VBashful
p3871
sVdragontail
p3872
VDragon Tail
p3873
sVkyurem
p3874
VKyurem
p3875
sVswellow
p3876
VSwellow
p3877
sVstringshot
p3878
VString Shot
p3879
sValomomola
p3880
VAlomomola
p3881
sVwatergun
p3882
VWater Gun
p3883
sVilluminate
p3884
VIlluminate
p3885
sVvcreate
p3886
VV-create
p3887
sVnomelberry
p3888
VNomel Berry
p3889
sVdrainingkiss
p3890
VDraining Kiss
p3891
sVsnaptrap
p3892
VSnap Trap
p3893
sVbasculin
p3894
VBasculin
p3895
sVgrassiumz
p3896
VGrassium Z
p3897
sVescavalier
p3898
VEscavalier
p3899
sVpsychoshift
p3900
VPsycho Shift
p3901
sVbisharp
p3902
VBisharp
p3903
sVhoundoom
p3904
VHoundoom
p3905
sVgulpin
p3906
VGulpin
p3907
sVpancham
p3908
VPancham
p3909
sVmantyke
p3910
VMantyke
p3911
sVpound
p3912
VPound
p3913
sVmedichamite
p3914
VMedichamite
p3915
sVrotommow
p3916
VRotom-Mow
p3917
sVdefendorder
p3918
VDefend Order
p3919
sVsurskit
p3920
VSurskit
p3921
sVmegalauncher
p3922
VMega Launcher
p3923
sVicebeam
p3924
VIce Beam
p3925
sVfacade
p3926
VFacade
p3927
sVzubat
p3928
VZubat
p3929
sVingrain
p3930
VIngrain
p3931
sVdragonenergy
p3932
VDragon Energy
p3933
sVpikachuphd
p3934
VPikachu-PhD
p3935
sVpowerlens
p3936
VPower Lens
p3937
sVzweilous
p3938
VZweilous
p3939
sVpoisonjab
p3940
VPoison Jab
p3941
sVcameruptmega
p3942
VCamerupt-Mega
p3943
sVprotectivepads
p3944
VProtective Pads
p3945
sVcrucibellemega
p3946
VCrucibelle-Mega
p3947
sVadrenalineorb
p3948
VAdrenaline Orb
p3949
sVleechseed
p3950
VLeech Seed
p3951
sVgorebyss
p3952
VGorebyss
p3953
sVfomantis
p3954
VFomantis
p3955
sVdedenne
p3956
VDedenne
p3957
sVcinderace
p3958
VCinderace
p3959
sVpikachu
p3960
VPikachu
p3961
sVrayquaza
p3962
VRayquaza
p3963
sVfroakie
p3964
VFroakie
p3965
sVloveball
p3966
VLove Ball
p3967
sVjumpluff
p3968
VJumpluff
p3969
sVkomala
p3970
VKomala
p3971
sVtoxtricitygmax
p3972
VToxtricity-Gmax
p3973
sVtimid
p3974
VTimid
p3975
sVmismagius
p3976
VMismagius
p3977
sVhiddenpowerbug
p3978
VHidden Power Bug
p3979
sVinfiltrator
p3980
VInfiltrator
p3981
sVpsychup
p3982
VPsych Up
p3983
sVsunstone
p3984
VSun Stone
p3985
sVtangrowth
p3986
VTangrowth
p3987
sVfiregem
p3988
VFire Gem
p3989
sVshellder
p3990
VShellder
p3991
sVwithdraw
p3992
VWithdraw
p3993
sVmoonball
p3994
VMoon Ball
p3995
sVpainsplit
p3996
VPain Split
p3997
sVsteelyspirit
p3998
VSteely Spirit
p3999
sVariados
p4000
VAriados
p4001
sVstoneedge
p4002
VStone Edge
p4003
sVhowl
p4004
VHowl
p4005
sVeeviumz
p4006
VEevium Z
p4007
sVwaterpledge
p4008
VWater Pledge
p4009
sVspearow
p4010
VSpearow
p4011
sVdarmanitan
p4012
VDarmanitan
p4013
sVrockwrecker
p4014
VRock Wrecker
p4015
sVoriginpulse
p4016
VOrigin Pulse
p4017
sVcompetitive
p4018
VCompetitive
p4019
sVzygarde
p4020
VZygarde
p4021
sVsolrock
p4022
VSolrock
p4023
sVthousandarrows
p4024
VThousand Arrows
p4025
sVpoltergeist
p4026
VPoltergeist
p4027
sVpachirisu
p4028
VPachirisu
p4029
sVsmokomodo
p4030
VSmokomodo
p4031
sVglaciallance
p4032
VGlacial Lance
p4033
sVcut
p4034
VCut
p4035
sVincineroar
p4036
VIncineroar
p4037
sVmirrorarmor
p4038
VMirror Armor
p4039
sVcloyster
p4040
VCloyster
p4041
sVshoreup
p4042
VShore Up
p4043
sVsnipeshot
p4044
VSnipe Shot
p4045
sVmetapod
p4046
VMetapod
p4047
sVairslash
p4048
VAir Slash
p4049
sVmagiccoat
p4050
VMagic Coat
p4051
sVacrobatics
p4052
VAcrobatics
p4053
sVspheal
p4054
VSpheal
p4055
sVtr59
p4056
VTR59
p4057
sVtr58
p4058
VTR58
p4059
sVmachampgmax
p4060
VMachamp-Gmax
p4061
sVchoicespecs
p4062
VChoice Specs
p4063
sVtr51
p4064
VTR51
p4065
sVtr50
p4066
VTR50
p4067
sVtr53
p4068
VTR53
p4069
sVtr52
p4070
VTR52
p4071
sVtr55
p4072
VTR55
p4073
sVtr54
p4074
VTR54
p4075
sVtr57
p4076
VTR57
p4077
sVtr56
p4078
VTR56
p4079
sVzacian
p4080
VZacian
p4081
sVlusterpurge
p4082
VLuster Purge
p4083
sVkeldeoresolute
p4084
VKeldeo-Resolute
p4085
sVzygardecomplete
p4086
VZygarde-Complete
p4087
sVmoody
p4088
VMoody
p4089
sVglaliemega
p4090
VGlalie-Mega
p4091
sVgothitelle
p4092
VGothitelle
p4093
sVskilllink
p4094
VSkill Link
p4095
sVponyta
p4096
VPonyta
p4097
sVpaleowave
p4098
VPaleo Wave
p4099
sVsubmission
p4100
VSubmission
p4101
sVstaravia
p4102
VStaravia
p4103
sVtailglow
p4104
VTail Glow
p4105
sVnoibat
p4106
VNoibat
p4107
sVstealthrock
p4108
VStealth Rock
p4109
sVtechnoblast
p4110
VTechno Blast
p4111
sVbaltoy
p4112
VBaltoy
p4113
sVflamewheel
p4114
VFlame Wheel
p4115
sVsketch
p4116
VSketch
p4117
sVfrisk
p4118
VFrisk
p4119
sVmagmarizer
p4120
VMagmarizer
p4121
sVspiritbreak
p4122
VSpirit Break
p4123
sVmaxairstream
p4124
VMax Airstream
p4125
sVpansage
p4126
VPansage
p4127
sVbounce
p4128
VBounce
p4129
sVphotongeyser
p4130
VPhoton Geyser
p4131
sVsouldew
p4132
VSoul Dew
p4133
sVgearup
p4134
VGear Up
p4135
sVsewaddle
p4136
VSewaddle
p4137
sVkommoo
p4138
VKommo-o
p4139
sVscald
p4140
VScald
p4141
sVominouswind
p4142
VOminous Wind
p4143
sVdeepseascale
p4144
VDeep Sea Scale
p4145
sVmummy
p4146
VMummy
p4147
sVhuntail
p4148
VHuntail
p4149
sVswordsdance
p4150
VSwords Dance
p4151
sVworkup
p4152
VWork Up
p4153
sVslash
p4154
VSlash
p4155
sVhiddenpowergrass
p4156
VHidden Power Grass
p4157
sVpidgeotite
p4158
VPidgeotite
p4159
sVgarchompmega
p4160
VGarchomp-Mega
p4161
sV10000000voltthunderbolt
p4162
V10,000,000 Volt Thunderbolt
p4163
sVzamazenta
p4164
VZamazenta
p4165
sVoricoriopau
p4166
VOricorio-Pa'u
p4167
sVseismitoad
p4168
VSeismitoad
p4169
sVodorsleuth
p4170
VOdor Sleuth
p4171
sVmewtwomegax
p4172
VMewtwo-Mega-X
p4173
sVmewtwomegay
p4174
VMewtwo-Mega-Y
p4175
sVfocussash
p4176
VFocus Sash
p4177
sVjellicent
p4178
VJellicent
p4179
sVspelonberry
p4180
VSpelon Berry
p4181
sVgenesectburn
p4182
VGenesect-Burn
p4183
sVnobleroar
p4184
VNoble Roar
p4185
sVkangaskhanite
p4186
VKangaskhanite
p4187
sVblazekick
p4188
VBlaze Kick
p4189
sViapapaberry
p4190
VIapapa Berry
p4191
sVmudkip
p4192
VMudkip
p4193
sVlibero
p4194
VLibero
p4195
sVbouffalant
p4196
VBouffalant
p4197
sVarceusghost
p4198
VArceus-Ghost
p4199
sVblock
p4200
VBlock
p4201
sVsharpedo
p4202
VSharpedo
p4203
sVarmthrust
p4204
VArm Thrust
p4205
sVchargebeam
p4206
VCharge Beam
p4207
sVshellos
p4208
VShellos
p4209
sVnidoking
p4210
VNidoking
p4211
sVeternatuseternamax
p4212
VEternatus-Eternamax
p4213
sVliquidation
p4214
VLiquidation
p4215
sVdynamaxcannon
p4216
VDynamax Cannon
p4217
sVsablenite
p4218
VSablenite
p4219
sVbarboach
p4220
VBarboach
p4221
sVstench
p4222
VStench
p4223
sViciclecrash
p4224
VIcicle Crash
p4225
sVcacnea
p4226
VCacnea
p4227
sVferrothorn
p4228
VFerrothorn
p4229
sVswampertmega
p4230
VSwampert-Mega
p4231
sVpajantom
p4232
VPajantom
p4233
sVpokestarmonster
p4234
VPokestar Monster
p4235
sVsyclar
p4236
VSyclar
p4237
sVmimicry
p4238
VMimicry
p4239
sVdarmanitangalarzen
p4240
VDarmanitan-Galar-Zen
p4241
sVdubwool
p4242
VDubwool
p4243
sVregieleki
p4244
VRegieleki
p4245
sVrelaxed
p4246
VRelaxed
p4247
sVeevee
p4248
VEevee
p4249
sVpsychocut
p4250
VPsycho Cut
p4251
sVtranquill
p4252
VTranquill
p4253
sVragepowder
p4254
VRage Powder
p4255
sVbuizel
p4256
VBuizel
p4257
sVsharpen
p4258
VSharpen
p4259
sVgrasspledge
p4260
VGrass Pledge
p4261
sVbuzzwole
p4262
VBuzzwole
p4263
sVabsolmega
p4264
VAbsol-Mega
p4265
sVdauntlessshield
p4266
VDauntless Shield
p4267
sVwatchog
p4268
VWatchog
p4269
sVsturdy
p4270
VSturdy
p4271
sVspacialrend
p4272
VSpacial Rend
p4273
sVforesight
p4274
VForesight
p4275
sVgrowth
p4276
VGrowth
p4277
sVskarmory
p4278
VSkarmory
p4279
sVpoliwrath
p4280
VPoliwrath
p4281
sVhappyhour
p4282
VHappy Hour
p4283
sVmurkrow
p4284
VMurkrow
p4285
sVgrimeralola
p4286
VGrimer-Alola
p4287
sVpechaberry
p4288
VPecha Berry
p4289
sVpikachusinnoh
p4290
VPikachu-Sinnoh
p4291
sVarceusfairy
p4292
VArceus-Fairy
p4293
sVovalstone
p4294
VOval Stone
p4295
sVgmaxchistrike
p4296
VG-Max Chi Strike
p4297
sVmiracleseed
p4298
VMiracle Seed
p4299
sVnaturesmadness
p4300
VNature's Madness
p4301
sVdracozolt
p4302
VDracozolt
p4303
sVrockhead
p4304
VRock Head
p4305
sVcalm
p4306
VCalm
p4307
sVstickybarb
p4308
VSticky Barb
p4309
sVganlonberry
p4310
VGanlon Berry
p4311
sVbulbasaur
p4312
VBulbasaur
p4313
sVgarbodorgmax
p4314
VGarbodor-Gmax
p4315
sVscorbunny
p4316
VScorbunny
p4317
sVribbonsweet
p4318
VRibbon Sweet
p4319
sVpichu
p4320
VPichu
p4321
sVheatwave
p4322
VHeat Wave
p4323
sVpokestarf00
p4324
VPokestar F-00
p4325
sVdrifloon
p4326
VDrifloon
p4327
sVsnowcloak
p4328
VSnow Cloak
p4329
sVrazorshell
p4330
VRazor Shell
p4331
sVslowkinggalar
p4332
VSlowking-Galar
p4333
sVsandacondagmax
p4334
VSandaconda-Gmax
p4335
sVmetagross
p4336
VMetagross
p4337
sVsparklingaria
p4338
VSparkling Aria
p4339
sVswirlpool
p4340
VSwirlpool
p4341
sVmaxdarkness
p4342
VMax Darkness
p4343
sVpokestarufo
p4344
VPokestar UFO
p4345
sVbounsweet
p4346
VBounsweet
p4347
sVmeowsticf
p4348
VMeowstic-F
p4349
sVlickilicky
p4350
VLickilicky
p4351
sVaccelgor
p4352
VAccelgor
p4353
sVmysteryberry
p4354
VMystery Berry
p4355
sVurshifugmax
p4356
VUrshifu-Gmax
p4357
sVmudbray
p4358
VMudbray
p4359
sVprecipiceblades
p4360
VPrecipice Blades
p4361
sVslaking
p4362
VSlaking
p4363
sVavalugg
p4364
VAvalugg
p4365
sVscratch
p4366
VScratch
p4367
sVplusle
p4368
VPlusle
p4369
sVcharmeleon
p4370
VCharmeleon
p4371
sVhighhorsepower
p4372
VHigh Horsepower
p4373
sVshiinotic
p4374
VShiinotic
p4375
sVnormaliumz
p4376
VNormalium Z
p4377
sVcharmander
p4378
VCharmander
p4379
sVspeedboost
p4380
VSpeed Boost
p4381
sVwakeupslap
p4382
VWake-Up Slap
p4383
sVpsychicgem
p4384
VPsychic Gem
p4385
sVharvest
p4386
VHarvest
p4387
sVperishsong
p4388
VPerish Song
p4389
sVcutecharm
p4390
VCute Charm
p4391
sVblaze
p4392
VBlaze
p4393
sVquickdraw
p4394
VQuick Draw
p4395
sVsniper
p4396
VSniper
p4397
sVtriplekick
p4398
VTriple Kick
p4399
sVdarumaka
p4400
VDarumaka
p4401
sVnightslash
p4402
VNight Slash
p4403
sVextrasensory
p4404
VExtrasensory
p4405
sVtr42
p4406
VTR42
p4407
sVteddiursa
p4408
VTeddiursa
p4409
sVthundershock
p4410
VThunder Shock
p4411
sVstonjourner
p4412
VStonjourner
p4413
sVazurill
p4414
VAzurill
p4415
sVbigpecks
p4416
VBig Pecks
p4417
sVlureball
p4418
VLure Ball
p4419
sVqwilfish
p4420
VQwilfish
p4421
sVhyperbeam
p4422
VHyper Beam
p4423
sVdynamicpunch
p4424
VDynamic Punch
p4425
sVlurantistotem
p4426
VLurantis-Totem
p4427
sVmagnemite
p4428
VMagnemite
p4429
sVtyrunt
p4430
VTyrunt
p4431
sVflygon
p4432
VFlygon
p4433
sVirondefense
p4434
VIron Defense
p4435
sVmisdreavus
p4436
VMisdreavus
p4437
sVunseenfist
p4438
VUnseen Fist
p4439
sVdousedrive
p4440
VDouse Drive
p4441
sVribombeetotem
p4442
VRibombee-Totem
p4443
sVcrushclaw
p4444
VCrush Claw
p4445
sVsoftboiled
p4446
VSoft-Boiled
p4447
sVarctovish
p4448
VArctovish
p4449
sVpoisongem
p4450
VPoison Gem
p4451
sVtectonicrage
p4452
VTectonic Rage
p4453
sVdownload
p4454
VDownload
p4455
sVburningjealousy
p4456
VBurning Jealousy
p4457
sVacid
p4458
VAcid
p4459
sVvigoroth
p4460
VVigoroth
p4461
sVmusharna
p4462
VMusharna
p4463
sVjumbao
p4464
VJumbao
p4465
sVlombre
p4466
VLombre
p4467
sVbaddybad
p4468
VBaddy Bad
p4469
sVdelcatty
p4470
VDelcatty
p4471
sVhoundoominite
p4472
VHoundoominite
p4473
sVturtonator
p4474
VTurtonator
p4475
sVgmaxtartness
p4476
VG-Max Tartness
p4477
sVtriattack
p4478
VTri Attack
p4479
sVtyranitar
p4480
VTyranitar
p4481
sVturtwig
p4482
VTurtwig
p4483
sVbruxish
p4484
VBruxish
p4485
sVsizzlipede
p4486
VSizzlipede
p4487
sVmagmastorm
p4488
VMagma Storm
p4489
sVpansear
p4490
VPansear
p4491
sVdeerling
p4492
VDeerling
p4493
sVswinub
p4494
VSwinub
p4495
sVgigavolthavoc
p4496
VGigavolt Havoc
p4497
sVsplishysplash
p4498
VSplishy Splash
p4499
sVsweetapple
p4500
VSweet Apple
p4501
sVservine
p4502
VServine
p4503
sVabomasnow
p4504
VAbomasnow
p4505
sVrowlet
p4506
VRowlet
p4507
sVsing
p4508
VSing
p4509
sVtriage
p4510
VTriage
p4511
sVpowersplit
p4512
VPower Split
p4513
sVincinerate
p4514
VIncinerate
p4515
sVmarangaberry
p4516
VMaranga Berry
p4517
sVkubfu
p4518
VKubfu
p4519
sVgossifleur
p4520
VGossifleur
p4521
sVrampardos
p4522
VRampardos
p4523
sVscreech
p4524
VScreech
p4525
sVtentacruel
p4526
VTentacruel
p4527
sVcramorant
p4528
VCramorant
p4529
sVnaturalcure
p4530
VNatural Cure
p4531
sVarticuno
p4532
VArticuno
p4533
sVforestscurse
p4534
VForest's Curse
p4535
sVblizzard
p4536
VBlizzard
p4537
sVteeterdance
p4538
VTeeter Dance
p4539
sVshieldsdown
p4540
VShields Down
p4541
sVfoongus
p4542
VFoongus
p4543
sVfirememory
p4544
VFire Memory
p4545
sVaquaring
p4546
VAqua Ring
p4547
sVprzcureberry
p4548
VPRZ Cure Berry
p4549
sVhardy
p4550
VHardy
p4551
sVarceusground
p4552
VArceus-Ground
p4553
sVpumpkaboolarge
p4554
VPumpkaboo-Large
p4555
sVkingdra
p4556
VKingdra
p4557
sVtr82
p4558
VTR82
p4559
sVtr83
p4560
VTR83
p4561
sVtr80
p4562
VTR80
p4563
sVtr81
p4564
VTR81
p4565
sVtr86
p4566
VTR86
p4567
sVtr87
p4568
VTR87
p4569
sVtr84
p4570
VTR84
p4571
sVtr85
p4572
VTR85
p4573
sVtr88
p4574
VTR88
p4575
sVtr89
p4576
VTR89
p4577
sVfierywrath
p4578
VFiery Wrath
p4579
sVaerodactylite
p4580
VAerodactylite
p4581
sVstakeout
p4582
VStakeout
p4583
sVbanettite
p4584
VBanettite
p4585
sVdragongem
p4586
VDragon Gem
p4587
sVheatran
p4588
VHeatran
p4589
sVsteelixite
p4590
VSteelixite
p4591
sVpropellertail
p4592
VPropeller Tail
p4593
sVheavyball
p4594
VHeavy Ball
p4595
sVcharcoal
p4596
VCharcoal
p4597
sVdubiousdisc
p4598
VDubious Disc
p4599
sVmistyseed
p4600
VMisty Seed
p4601
sVgmaxsmite
p4602
VG-Max Smite
p4603
sVcranidos
p4604
VCranidos
p4605
sVabsol
p4606
VAbsol
p4607
sVcelesteela
p4608
VCelesteela
p4609
sVfalsesurrender
p4610
VFalse Surrender
p4611
sVaerodactylmega
p4612
VAerodactyl-Mega
p4613
sVrivalry
p4614
VRivalry
p4615
sVwatersport
p4616
VWater Sport
p4617
sVpikaniumz
p4618
VPikanium Z
p4619
sVicicleplate
p4620
VIcicle Plate
p4621
sVmimikyubustedtotem
p4622
VMimikyu-Busted-Totem
p4623
sVfuturesight
p4624
VFuture Sight
p4625
sVfirelash
p4626
VFire Lash
p4627
sVsmellingsalts
p4628
VSmelling Salts
p4629
sVmistysurge
p4630
VMisty Surge
p4631
sVarchen
p4632
VArchen
p4633
sVexeggcute
p4634
VExeggcute
p4635
sVlucario
p4636
VLucario
p4637
sVthundurus
p4638
VThundurus
p4639
sVsyclant
p4640
VSyclant
p4641
sVburnup
p4642
VBurn Up
p4643
sVdonphan
p4644
VDonphan
p4645
sVterrakion
p4646
VTerrakion
p4647
sVblacksludge
p4648
VBlack Sludge
p4649
sVhaunter
p4650
VHaunter
p4651
sVsilvallypsychic
p4652
VSilvally-Psychic
p4653
sVrelicsong
p4654
VRelic Song
p4655
sVsnaelstrom
p4656
VSnaelstrom
p4657
sVmaxovergrowth
p4658
VMax Overgrowth
p4659
sVheliolisk
p4660
VHeliolisk
p4661
sVaerilate
p4662
VAerilate
p4663
sVblazikenmega
p4664
VBlaziken-Mega
p4665
sVgastrodon
p4666
VGastrodon
p4667
sVgalaricacuff
p4668
VGalarica Cuff
p4669
sVbronzong
p4670
VBronzong
p4671
sVweavile
p4672
VWeavile
p4673
sVhungerswitch
p4674
VHunger Switch
p4675
sVnoctowl
p4676
VNoctowl
p4677
sVchandelure
p4678
VChandelure
p4679
sVutilityumbrella
p4680
VUtility Umbrella
p4681
sVsecretsword
p4682
VSecret Sword
p4683
sVowntempo
p4684
VOwn Tempo
p4685
sVhiddenpower
p4686
VHidden Power
p4687
sVrazorleaf
p4688
VRazor Leaf
p4689
sVpowerswap
p4690
VPower Swap
p4691
sVdragalge
p4692
VDragalge
p4693
sVgrasswhistle
p4694
VGrass Whistle
p4695
sVroserade
p4696
VRoserade
p4697
sVwynaut
p4698
VWynaut
p4699
sVpidgey
p4700
VPidgey
p4701
sVpoisoniumz
p4702
VPoisonium Z
p4703
sVsinistea
p4704
VSinistea
p4705
sVaggronite
p4706
VAggronite
p4707
sVgenesect
p4708
VGenesect
p4709
sVlotad
p4710
VLotad
p4711
sVquilava
p4712
VQuilava
p4713
sVrkssystem
p4714
VRKS System
p4715
sVsilvallyice
p4716
VSilvally-Ice
p4717
sVvikavolttotem
p4718
VVikavolt-Totem
p4719
sVbind
p4720
VBind
p4721
sVcounter
p4722
VCounter
p4723
sVvikavolt
p4724
VVikavolt
p4725
sVfullincense
p4726
VFull Incense
p4727
sVfloatoy
p4728
VFloatoy
p4729
sVweepinbell
p4730
VWeepinbell
p4731
sVhitmonchan
p4732
VHitmonchan
p4733
sVfreezyfrost
p4734
VFreezy Frost
p4735
sVwoobat
p4736
VWoobat
p4737
sVstratagem
p4738
VStratagem
p4739
sVaquajet
p4740
VAqua Jet
p4741
sVkrabby
p4742
VKrabby
p4743
sVdewott
p4744
VDewott
p4745
sVdragonair
p4746
VDragonair
p4747
sVpyroar
p4748
VPyroar
p4749
sVhitmontop
p4750
VHitmontop
p4751
sVheatproof
p4752
VHeatproof
p4753
sVcentiskorch
p4754
VCentiskorch
p4755
sVillumise
p4756
VIllumise
p4757
sVmukalola
p4758
VMuk-Alola
p4759
sVguardswap
p4760
VGuard Swap
p4761
sVassaultvest
p4762
VAssault Vest
p4763
sVfarfetchdgalar
p4764
VFarfetch\u2019d-Galar
p4765
sVpetalblizzard
p4766
VPetal Blizzard
p4767
sVkadabra
p4768
VKadabra
p4769
sVpurepower
p4770
VPure Power
p4771
sVironball
p4772
VIron Ball
p4773
sVdreameater
p4774
VDream Eater
p4775
sVhelpinghand
p4776
VHelping Hand
p4777
sVmunchlax
p4778
VMunchlax
p4779
sVduraludongmax
p4780
VDuraludon-Gmax
p4781
sVequilibra
p4782
VEquilibra
p4783
sVzenheadbutt
p4784
VZen Headbutt
p4785
sVbelch
p4786
VBelch
p4787
sVpowertrip
p4788
VPower Trip
p4789
sVponytagalar
p4790
VPonyta-Galar
p4791
sVberryjuice
p4792
VBerry Juice
p4793
sVhiddenpowerflying
p4794
VHidden Power Flying
p4795
sVmilotic
p4796
VMilotic
p4797
sVpikachuoriginal
p4798
VPikachu-Original
p4799
sVpsychicsurge
p4800
VPsychic Surge
p4801
sVflail
p4802
VFlail
p4803
sVhaxorus
p4804
VHaxorus
p4805
sVhoothoot
p4806
VHoothoot
p4807
sVkoffing
p4808
VKoffing
p4809
sVtoxapex
p4810
VToxapex
p4811
sVarbok
p4812
VArbok
p4813
sVmagnitude
p4814
VMagnitude
p4815
sVarceusfighting
p4816
VArceus-Fighting
p4817
sVrapidspin
p4818
VRapid Spin
p4819
sVskullbash
p4820
VSkull Bash
p4821
sVdratini
p4822
VDratini
p4823
sVafteryou
p4824
VAfter You
p4825
sVmaractus
p4826
VMaractus
p4827
sVcrucibellite
p4828
VCrucibellite
p4829
sVmareanie
p4830
VMareanie
p4831
sVgrassysurge
p4832
VGrassy Surge
p4833
sVgallademega
p4834
VGallade-Mega
p4835
sVmagnetpull
p4836
VMagnet Pull
p4837
sVtepig
p4838
VTepig
p4839
sVkelpsyberry
p4840
VKelpsy Berry
p4841
sVstatic
p4842
VStatic
p4843
sVflameplate
p4844
VFlame Plate
p4845
sVicefang
p4846
VIce Fang
p4847
sVvenonat
p4848
VVenonat
p4849
sVsilvallyfighting
p4850
VSilvally-Fighting
p4851
sVjoltik
p4852
VJoltik
p4853
sVrollingkick
p4854
VRolling Kick
p4855
sVoricorio
p4856
VOricorio
p4857
sVweatherball
p4858
VWeather Ball
p4859
sVshatteredpsyche
p4860
VShattered Psyche
p4861
sVmewniumz
p4862
VMewnium Z
p4863
sVmanectric
p4864
VManectric
p4865
sVnaturepower
p4866
VNature Power
p4867
sVregisteel
p4868
VRegisteel
p4869
sVsmog
p4870
VSmog
p4871
sVbabydolleyes
p4872
VBaby-Doll Eyes
p4873
sVleafguard
p4874
VLeaf Guard
p4875
sVicywind
p4876
VIcy Wind
p4877
sVemolga
p4878
VEmolga
p4879
sVconkeldurr
p4880
VConkeldurr
p4881
sVduskstone
p4882
VDusk Stone
p4883
sVmetagrossite
p4884
VMetagrossite
p4885
sVhippowdon
p4886
VHippowdon
p4887
sVenigmaberry
p4888
VEnigma Berry
p4889
sVscatterbug
p4890
VScatterbug
p4891
sVlashout
p4892
VLash Out
p4893
sVsteelmemory
p4894
VSteel Memory
p4895
sVtropkick
p4896
VTrop Kick
p4897
sVsudowoodo
p4898
VSudowoodo
p4899
sVlarvitar
p4900
VLarvitar
p4901
sVheadbutt
p4902
VHeadbutt
p4903
sVsurgesurfer
p4904
VSurge Surfer
p4905
sVbodyslam
p4906
VBody Slam
p4907
sVbugbuzz
p4908
VBug Buzz
p4909
sVeiscue
p4910
VEiscue
p4911
sVfirefang
p4912
VFire Fang
p4913
sVaurawheel
p4914
VAura Wheel
p4915
sVdiancite
p4916
VDiancite
p4917
sVcalyrexshadow
p4918
VCalyrex-Shadow
p4919
sVmistball
p4920
VMist Ball
p4921
sVyamper
p4922
VYamper
p4923
sVskrelp
p4924
VSkrelp
p4925
sVjumpkick
p4926
VJump Kick
p4927
sVimpidimp
p4928
VImpidimp
p4929
sVwaterspout
p4930
VWater Spout
p4931
sVpsychicmemory
p4932
VPsychic Memory
p4933
sVloudred
p4934
VLoudred
p4935
sVearthpower
p4936
VEarth Power
p4937
sVblissey
p4938
VBlissey
p4939
sVpikachukalos
p4940
VPikachu-Kalos
p4941
sVpremierball
p4942
VPremier Ball
p4943
sVrotomfrost
p4944
VRotom-Frost
p4945
sVsolidrock
p4946
VSolid Rock
p4947
sVhonedge
p4948
VHonedge
p4949
sVrabutaberry
p4950
VRabuta Berry
p4951
sVagility
p4952
VAgility
p4953
sVelectabuzz
p4954
VElectabuzz
p4955
sVhoopaunbound
p4956
VHoopa-Unbound
p4957
sVgmaxfoamburst
p4958
VG-Max Foam Burst
p4959
sVsachet
p4960
VSachet
p4961
sVcrobat
p4962
VCrobat
p4963
sVtransistor
p4964
VTransistor
p4965
sVrockblast
p4966
VRock Blast
p4967
sVslackoff
p4968
VSlack Off
p4969
sVprivatyke
p4970
VPrivatyke
p4971
sVsoftsand
p4972
VSoft Sand
p4973
sVsigilyph
p4974
VSigilyph
p4975
sVdeepseatooth
p4976
VDeep Sea Tooth
p4977
sVtorkoal
p4978
VTorkoal
p4979
sVwurmple
p4980
VWurmple
p4981
sVpikachuworld
p4982
VPikachu-World
p4983
sVsunsteelstrike
p4984
VSunsteel Strike
p4985
sVtr99
p4986
VTR99
p4987
sVtr98
p4988
VTR98
p4989
sVtr95
p4990
VTR95
p4991
sVtr94
p4992
VTR94
p4993
sVtr97
p4994
VTR97
p4995
sVtr96
p4996
VTR96
p4997
sVtr91
p4998
VTR91
p4999
sVtr90
p5000
VTR90
p5001
sVtr93
p5002
VTR93
p5003
sVtr92
p5004
VTR92
p5005
sVpoisonfang
p5006
VPoison Fang
p5007
sVinsectplate
p5008
VInsect Plate
p5009
sVtorrent
p5010
VTorrent
p5011
sVencore
p5012
VEncore
p5013
sVquickball
p5014
VQuick Ball
p5015
sVtrapinch
p5016
VTrapinch
p5017
sVbonerush
p5018
VBone Rush
p5019
sVgentle
p5020
VGentle
p5021
sVmeowthgalar
p5022
VMeowth-Galar
p5023
sVtorment
p5024
VTorment
p5025
sVarceusflying
p5026
VArceus-Flying
p5027
sVzebstrika
p5028
VZebstrika
p5029
sVwhitesmoke
p5030
VWhite Smoke
p5031
sVlevelball
p5032
VLevel Ball
p5033
sVsoak
p5034
VSoak
p5035
sVfusionbolt
p5036
VFusion Bolt
p5037
sVflareon
p5038
VFlareon
p5039
sVcalmmind
p5040
VCalm Mind
p5041
sVdiamondstorm
p5042
VDiamond Storm
p5043
sVgravity
p5044
VGravity
p5045
sVcarnivine
p5046
VCarnivine
p5047
sVgrimmsnarlgmax
p5048
VGrimmsnarl-Gmax
p5049
sVgrassgem
p5050
VGrass Gem
p5051
sVfleurcannon
p5052
VFleur Cannon
p5053
sVpsychoboost
p5054
VPsycho Boost
p5055
sVnuzleaf
p5056
VNuzleaf
p5057
sVwidelens
p5058
VWide Lens
p5059
sVurshifurapidstrike
p5060
VUrshifu-Rapid-Strike
p5061
sVshadowball
p5062
VShadow Ball
p5063
sVdrifblim
p5064
VDrifblim
p5065
sVgoldeen
p5066
VGoldeen
p5067
sVmewtwo
p5068
VMewtwo
p5069
sVcufant
p5070
VCufant
p5071
sVrollout
p5072
VRollout
p5073
sVslurpuff
p5074
VSlurpuff
p5075
sVdracometeor
p5076
VDraco Meteor
p5077
sVsludgewave
p5078
VSludge Wave
p5079
sVsceptile
p5080
VSceptile
p5081
sVgmaxfireball
p5082
VG-Max Fireball
p5083
sVaraquanid
p5084
VAraquanid
p5085
sVgardevoirite
p5086
VGardevoirite
p5087
sVrookidee
p5088
VRookidee
p5089
sVexeggutor
p5090
VExeggutor
p5091
sVshedskin
p5092
VShed Skin
p5093
sVcherrimsunshine
p5094
VCherrim-Sunshine
p5095
sVarceus
p5096
VArceus
p5097
sVimpish
p5098
VImpish
p5099
sVgmaxterror
p5100
VG-Max Terror
p5101
sVwailmer
p5102
VWailmer
p5103
sVexpandingforce
p5104
VExpanding Force
p5105
sVbrine
p5106
VBrine
p5107
sVdawnstone
p5108
VDawn Stone
p5109
sVsleeppowder
p5110
VSleep Powder
p5111
sVoldamber
p5112
VOld Amber
p5113
sVsnover
p5114
VSnover
p5115
sVmumbao
p5116
VMumbao
p5117
sVdurant
p5118
VDurant
p5119
sVdarkiniumz
p5120
VDarkinium Z
p5121
sVsimplebeam
p5122
VSimple Beam
p5123
sVtimburr
p5124
VTimburr
p5125
sVsheercold
p5126
VSheer Cold
p5127
sVbrickbreak
p5128
VBrick Break
p5129
sVrash
p5130
VRash
p5131
sVpiplup
p5132
VPiplup
p5133
sVflashfire
p5134
VFlash Fire
p5135
sVgmaxmeltdown
p5136
VG-Max Meltdown
p5137
sVelectricmemory
p5138
VElectric Memory
p5139
sValoraichiumz
p5140
VAloraichium Z
p5141
sVpikipek
p5142
VPikipek
p5143
sVdeino
p5144
VDeino
p5145
sVcamerupt
p5146
VCamerupt
p5147
sVluckypunch
p5148
VLucky Punch
p5149
sVpurrloin
p5150
VPurrloin
p5151
sVrarebone
p5152
VRare Bone
p5153
sVsolosis
p5154
VSolosis
p5155
sVbellydrum
p5156
VBelly Drum
p5157
sVsassy
p5158
VSassy
p5159
sVumbreon
p5160
VUmbreon
p5161
sVdeoxysattack
p5162
VDeoxys-Attack
p5163
sVcroagunk
p5164
VCroagunk
p5165
sVbravebird
p5166
VBrave Bird
p5167
sVroomservice
p5168
VRoom Service
p5169
sVmagicguard
p5170
VMagic Guard
p5171
sVpikapapow
p5172
VPika Papow
p5173
sVswampert
p5174
VSwampert
p5175
sVsandattack
p5176
VSand Attack
p5177
sVkingler
p5178
VKingler
p5179
sVberrysweet
p5180
VBerry Sweet
p5181
sVhugepower
p5182
VHuge Power
p5183
sVmudbomb
p5184
VMud Bomb
p5185
sVvictreebel
p5186
VVictreebel
p5187
sVdartrix
p5188
VDartrix
p5189
sVrisingvoltage
p5190
VRising Voltage
p5191
sVgeomancy
p5192
VGeomancy
p5193
sVleafstone
p5194
VLeaf Stone
p5195
sVcacturne
p5196
VCacturne
p5197
sVpowder
p5198
VPowder
p5199
sVvictini
p5200
VVictini
p5201
sVfinneon
p5202
VFinneon
p5203
sVtwineedle
p5204
VTwineedle
p5205
sVchestoberry
p5206
VChesto Berry
p5207
sVgrumpig
p5208
VGrumpig
p5209
sVbuginiumz
p5210
VBuginium Z
p5211
sVnightmare
p5212
VNightmare
p5213
sVgyarados
p5214
VGyarados
p5215
sVlycaniumz
p5216
VLycanium Z
p5217
sVvaporeon
p5218
VVaporeon
p5219
sVthunderwave
p5220
VThunder Wave
p5221
sVrockincense
p5222
VRock Incense
p5223
sVfroslass
p5224
VFroslass
p5225
sVsobble
p5226
VSobble
p5227
sVaron
p5228
VAron
p5229
sVconversion2
p5230
VConversion 2
p5231
sVmysticalfire
p5232
VMystical Fire
p5233
sVzoroark
p5234
VZoroark
p5235
sVshellsmash
p5236
VShell Smash
p5237
sVsirfetchd
p5238
VSirfetch\u2019d
p5239
sVhydropump
p5240
VHydro Pump
p5241
sVgmaxwindrage
p5242
VG-Max Wind Rage
p5243
sVswift
p5244
VSwift
p5245
sVmemento
p5246
VMemento
p5247
sVmetang
p5248
VMetang
p5249
sVklinklang
p5250
VKlinklang
p5251
sVaerodactyl
p5252
VAerodactyl
p5253
sVpoisonheal
p5254
VPoison Heal
p5255
sVsceptilite
p5256
VSceptilite
p5257
sVsafetygoggles
p5258
VSafety Goggles
p5259
sVrockruff
p5260
VRockruff
p5261
sVklang
p5262
VKlang
p5263
sVgreninjaash
p5264
VGreninja-Ash
p5265
sVswallow
p5266
VSwallow
p5267
sVspritzee
p5268
VSpritzee
p5269
sVflabebe
p5270
VFlabe\u0301be\u0301
p5271
sVtr60
p5272
VTR60
p5273
sVnumel
p5274
VNumel
p5275
sVwoodhammer
p5276
VWood Hammer
p5277
sVhiddenpowerwater
p5278
VHidden Power Water
p5279
sVmalaconda
p5280
VMalaconda
p5281
sVgible
p5282
VGible
p5283
sVovercoat
p5284
VOvercoat
p5285
sVekans
p5286
VEkans
p5287
sVsharpedomega
p5288
VSharpedo-Mega
p5289
sVpixieplate
p5290
VPixie Plate
p5291
sVsandspit
p5292
VSand Spit
p5293
sVtoxtricitylowkeygmax
p5294
VToxtricity-Low-Key-Gmax
p5295
sVvolkritter
p5296
VVolkritter
p5297
sVtr65
p5298
VTR65
p5299
sVdisarmingvoice
p5300
VDisarming Voice
p5301
sVwailord
p5302
VWailord
p5303
sVswoobat
p5304
VSwoobat
p5305
sVelectrify
p5306
VElectrify
p5307
sVbindingband
p5308
VBinding Band
p5309
sVoricoriosensu
p5310
VOricorio-Sensu
p5311
sVelectrelk
p5312
VElectrelk
p5313
sVyamaskgalar
p5314
VYamask-Galar
p5315
sVrattata
p5316
VRattata
p5317
sVlitten
p5318
VLitten
p5319
sVgirafarig
p5320
VGirafarig
p5321
sVtomohawk
p5322
VTomohawk
p5323
sVivysaur
p5324
VIvysaur
p5325
sVhorndrill
p5326
VHorn Drill
p5327
sVcoverfossil
p5328
VCover Fossil
p5329
sVgraveler
p5330
VGraveler
p5331
sVsmeargle
p5332
VSmeargle
p5333
sVgmaxbefuddle
p5334
VG-Max Befuddle
p5335
sVraindance
p5336
VRain Dance
p5337
sVbreezi
p5338
VBreezi
p5339
sVinfestation
p5340
VInfestation
p5341
sVvoodoll
p5342
VVoodoll
p5343
sVpresent
p5344
VPresent
p5345
sVgrovyle
p5346
VGrovyle
p5347
sVneutralizinggas
p5348
VNeutralizing Gas
p5349
sVpokestarf002
p5350
VPokestar F-002
p5351
sVintimidate
p5352
VIntimidate
p5353
sVdottler
p5354
VDottler
p5355
sVripen
p5356
VRipen
p5357
sVharden
p5358
VHarden
p5359
sVpowerweight
p5360
VPower Weight
p5361
sVflaaffy
p5362
VFlaaffy
p5363
sVbeheeyem
p5364
VBeheeyem
p5365
sVwhirlpool
p5366
VWhirlpool
p5367
sVpelipper
p5368
VPelipper
p5369
sVgulpmissile
p5370
VGulp Missile
p5371
sVthickfat
p5372
VThick Fat
p5373
sVcarracosta
p5374
VCarracosta
p5375
sVluxio
p5376
VLuxio
p5377
sVvullaby
p5378
VVullaby
p5379
sVhiddenpowerghost
p5380
VHidden Power Ghost
p5381
sVlightball
p5382
VLight Ball
p5383
sVwaterveil
p5384
VWater Veil
p5385
sVspelltag
p5386
VSpell Tag
p5387
sVdeoxysdefense
p5388
VDeoxys-Defense
p5389
sVzekrom
p5390
VZekrom
p5391
sVaipom
p5392
VAipom
p5393
sVdefiant
p5394
VDefiant
p5395
sVhardstone
p5396
VHard Stone
p5397
sVkebiaberry
p5398
VKebia Berry
p5399
sVbergmite
p5400
VBergmite
p5401
sVcascoon
p5402
VCascoon
p5403
sVdoubleironbash
p5404
VDouble Iron Bash
p5405
sVmindblown
p5406
VMind Blown
p5407
sVmagcargo
p5408
VMagcargo
p5409
sVabsorb
p5410
VAbsorb
p5411
sVpikachuhoenn
p5412
VPikachu-Hoenn
p5413
sVraindish
p5414
VRain Dish
p5415
sVseaking
p5416
VSeaking
p5417
sVmagician
p5418
VMagician
p5419
sVdragoniumz
p5420
VDragonium Z
p5421
sVairlock
p5422
VAir Lock
p5423
sVbabiriberry
p5424
VBabiri Berry
p5425
sVaspearberry
p5426
VAspear Berry
p5427
sVeelektross
p5428
VEelektross
p5429
sVpickpocket
p5430
VPickpocket
p5431
sVsitrusberry
p5432
VSitrus Berry
p5433
sVarceuspsychic
p5434
VArceus-Psychic
p5435
sVbeautifly
p5436
VBeautifly
p5437
sVwormadamtrash
p5438
VWormadam-Trash
p5439
sVmiasmaw
p5440
VMiasmaw
p5441
sVvenoshock
p5442
VVenoshock
p5443
sVsilvallyfairy
p5444
VSilvally-Fairy
p5445
sVbouncybubble
p5446
VBouncy Bubble
p5447
sVglastrier
p5448
VGlastrier
p5449
sVmudsport
p5450
VMud Sport
p5451
sVazelf
p5452
VAzelf
p5453
sVzarudedada
p5454
VZarude-Dada
p5455
sVyanmega
p5456
VYanmega
p5457
sVnaviathan
p5458
VNaviathan
p5459
sVfairyaura
p5460
VFairy Aura
p5461
sVthievul
p5462
VThievul
p5463
sVsailfossil
p5464
VSail Fossil
p5465
sVpinsir
p5466
VPinsir
p5467
sVmaxguard
p5468
VMax Guard
p5469
sVrotom
p5470
VRotom
p5471
sVguts
p5472
VGuts
p5473
sVtauros
p5474
VTauros
p5475
sVnatu
p5476
VNatu
p5477
sVfaketears
p5478
VFake Tears
p5479
sVsimple
p5480
VSimple
p5481
sVaromaticmist
p5482
VAromatic Mist
p5483
sVbeedrillite
p5484
VBeedrillite
p5485
sVdeltastream
p5486
VDelta Stream
p5487
sVleechlife
p5488
VLeech Life
p5489
sVaegislash
p5490
VAegislash
p5491
sVkingsshield
p5492
VKing's Shield
p5493
sVkingsrock
p5494
VKing's Rock
p5495
sVblukberry
p5496
VBluk Berry
p5497
sVflowershield
p5498
VFlower Shield
p5499
sVarenatrap
p5500
VArena Trap
p5501
sVtaunt
p5502
VTaunt
p5503
sVlaserfocus
p5504
VLaser Focus
p5505
sVorbeetle
p5506
VOrbeetle
p5507
sVkabutops
p5508
VKabutops
p5509
sVcinderacegmax
p5510
VCinderace-Gmax
p5511
sVgreninja
p5512
VGreninja
p5513
sVreapercloth
p5514
VReaper Cloth
p5515
sVslowpokegalar
p5516
VSlowpoke-Galar
p5517
sVdhelmise
p5518
VDhelmise
p5519
sVgmaxsteelsurge
p5520
VG-Max Steelsurge
p5521
sVgogoat
p5522
VGogoat
p5523
sVlilligant
p5524
VLilligant
p5525
sVillusion
p5526
VIllusion
p5527
sVhattrem
p5528
VHattrem
p5529
sVhealball
p5530
VHeal Ball
p5531
sVphanpy
p5532
VPhanpy
p5533
sVaudinite
p5534
VAudinite
p5535
sVcourtchange
p5536
VCourt Change
p5537
sVimprison
p5538
VImprison
p5539
sVrepeatball
p5540
VRepeat Ball
p5541
sVglare
p5542
VGlare
p5543
sVjangmoo
p5544
VJangmo-o
p5545
sVthief
p5546
VThief
p5547
sVhail
p5548
VHail
p5549
sVcofagrigus
p5550
VCofagrigus
p5551
sVwepearberry
p5552
VWepear Berry
p5553
sVducklett
p5554
VDucklett
p5555
sVoblivious
p5556
VOblivious
p5557
sVdragonclaw
p5558
VDragon Claw
p5559
sVdrizzle
p5560
VDrizzle
p5561
sVzygarde10
p5562
VZygarde-10%
p5563
sVstaraptor
p5564
VStaraptor
p5565
sVmagicalleaf
p5566
VMagical Leaf
p5567
sVrustedshield
p5568
VRusted Shield
p5569
sVforcepalm
p5570
VForce Palm
p5571
sVgrookey
p5572
VGrookey
p5573
sVtripleaxel
p5574
VTriple Axel
p5575
sVhurricane
p5576
VHurricane
p5577
sVlileep
p5578
VLileep
p5579
sVpiloswine
p5580
VPiloswine
p5581
sVstompingtantrum
p5582
VStomping Tantrum
p5583
sVjudgment
p5584
VJudgment
p5585
sVgreedent
p5586
VGreedent
p5587
sVmistyexplosion
p5588
VMisty Explosion
p5589
sVvenusaurite
p5590
VVenusaurite
p5591
sVeiscuenoice
p5592
VEiscue-Noice
p5593
sVraichu
p5594
VRaichu
p5595
sVcyclohm
p5596
VCyclohm
p5597
sVhappiny
p5598
VHappiny
p5599
sVpressure
p5600
VPressure
p5601
sVsilkscarf
p5602
VSilk Scarf
p5603
sVpidgeotto
p5604
VPidgeotto
p5605
sVdreadplate
p5606
VDread Plate
p5607
sVwooloo
p5608
VWooloo
p5609
sVsableyemega
p5610
VSableye-Mega
p5611
sVfurret
p5612
VFurret
p5613
sVgrimmsnarl
p5614
VGrimmsnarl
p5615
sVpsystrike
p5616
VPsystrike
p5617
sVmiltank
p5618
VMiltank
p5619
sVmeteormash
p5620
VMeteor Mash
p5621
sVshucaberry
p5622
VShuca Berry
p5623
sVrockmemory
p5624
VRock Memory
p5625
sVzigzagoongalar
p5626
VZigzagoon-Galar
p5627
sVsweetkiss
p5628
VSweet Kiss
p5629
sVmaxgeyser
p5630
VMax Geyser
p5631
sVmaxwyrmwind
p5632
VMax Wyrmwind
p5633
sVacidarmor
p5634
VAcid Armor
p5635
sVlightclay
p5636
VLight Clay
p5637
sVvoodoom
p5638
VVoodoom
p5639
sVblueorb
p5640
VBlue Orb
p5641
sVfeintattack
p5642
VFeint Attack
p5643
sVburmy
p5644
VBurmy
p5645
sVicememory
p5646
VIce Memory
p5647
sVcaimanoe
p5648
VCaimanoe
p5649
sVgmaxcentiferno
p5650
VG-Max Centiferno
p5651
sVrillaboomgmax
p5652
VRillaboom-Gmax
p5653
sVmagostberry
p5654
VMagost Berry
p5655
sVgrapploct
p5656
VGrapploct
p5657
sVlanturn
p5658
VLanturn
p5659
sVgrasspelt
p5660
VGrass Pelt
p5661
sVicestone
p5662
VIce Stone
p5663
sVspitup
p5664
VSpit Up
p5665
sVstamina
p5666
VStamina
p5667
sVrockthrow
p5668
VRock Throw
p5669
sVmaxooze
p5670
VMax Ooze
p5671
sVroseliberry
p5672
VRoseli Berry
p5673
sVfrustration
p5674
VFrustration
p5675
sVambipom
p5676
VAmbipom
p5677
sVsolgaleo
p5678
VSolgaleo
p5679
sVfollowme
p5680
VFollow Me
p5681
sVclauncher
p5682
VClauncher
p5683
sVfawnifer
p5684
VFawnifer
p5685
sVquickpowder
p5686
VQuick Powder
p5687
sVfrenzyplant
p5688
VFrenzy Plant
p5689
sVclearbody
p5690
VClear Body
p5691
sVrapidashgalar
p5692
VRapidash-Galar
p5693
sVoceanicoperetta
p5694
VOceanic Operetta
p5695
sVmagoberry
p5696
VMago Berry
p5697
sVcroconaw
p5698
VCroconaw
p5699
sVdrowzee
p5700
VDrowzee
p5701
sVserenegrace
p5702
VSerene Grace
p5703
sVheracronite
p5704
VHeracronite
p5705
sVtechnician
p5706
VTechnician
p5707
sVarceusgrass
p5708
VArceus-Grass
p5709
sVmorelull
p5710
VMorelull
p5711
sVembargo
p5712
VEmbargo
p5713
sVpikachuunova
p5714
VPikachu-Unova
p5715
sVmetronome
p5716
VMetronome
p5717
sVattackorder
p5718
VAttack Order
p5719
sVallyswitch
p5720
VAlly Switch
p5721
sVwish
p5722
VWish
p5723
sVpersian
p5724
VPersian
p5725
sVentrainment
p5726
VEntrainment
p5727
sVtailwhip
p5728
VTail Whip
p5729
sVpyukumuku
p5730
VPyukumuku
p5731
sVscizormega
p5732
VScizor-Mega
p5733
sVthroatchop
p5734
VThroat Chop
p5735
sVhoneclaws
p5736
VHone Claws
p5737
sVgrassmemory
p5738
VGrass Memory
p5739
sVpikachurockstar
p5740
VPikachu-Rock-Star
p5741
sVlinoonegalar
p5742
VLinoone-Galar
p5743
sVoranberry
p5744
VOran Berry
p5745
sVmarshadow
p5746
VMarshadow
p5747
sVninjask
p5748
VNinjask
p5749
sVslowstart
p5750
VSlow Start
p5751
sVweakarmor
p5752
VWeak Armor
p5753
sVaurasphere
p5754
VAura Sphere
p5755
sVshelgon
p5756
VShelgon
p5757
sVrawstberry
p5758
VRawst Berry
p5759
sVshadowbone
p5760
VShadow Bone
p5761
sVpokestarblackbelt
p5762
VPokestar Black Belt
p5763
sVvacuumwave
p5764
VVacuum Wave
p5765
sVbranchpoke
p5766
VBranch Poke
p5767
sVroleplay
p5768
VRole Play
p5769
sVyacheberry
p5770
VYache Berry
p5771
sVelectriumz
p5772
VElectrium Z
p5773
sVtreecko
p5774
VTreecko
p5775
sVinteleongmax
p5776
VInteleon-Gmax
p5777
sVwimpout
p5778
VWimp Out
p5779
sVbraviary
p5780
VBraviary
p5781
sVvivillon
p5782
VVivillon
p5783
sVnoguard
p5784
VNo Guard
p5785
sVsalamencemega
p5786
VSalamence-Mega
p5787
sVabomasite
p5788
VAbomasite
p5789
sVstarmie
p5790
VStarmie
p5791
sVpersistent
p5792
VPersistent
p5793
sVmagmar
p5794
VMagmar
p5795
sVzangoose
p5796
VZangoose
p5797
sVvivillonfancy
p5798
VVivillon-Fancy
p5799
sVvanilluxe
p5800
VVanilluxe
p5801
s.